
A0029 - Carnaval Kleding REV D.elf:     file format elf32-avr

Sections:
Idx Name          Size      VMA       LMA       File off  Algn
  0 .data         00000100  00800100  00002176  0000220a  2**0
                  CONTENTS, ALLOC, LOAD, DATA
  1 .text         00002176  00000000  00000000  00000094  2**1
                  CONTENTS, ALLOC, LOAD, READONLY, CODE
  2 .bss          00000065  00800200  00800200  0000230a  2**0
                  ALLOC
  3 .stab         000006cc  00000000  00000000  0000230c  2**2
                  CONTENTS, READONLY, DEBUGGING
  4 .stabstr      00000085  00000000  00000000  000029d8  2**0
                  CONTENTS, READONLY, DEBUGGING
  5 .debug_aranges 00000120  00000000  00000000  00002a60  2**3
                  CONTENTS, READONLY, DEBUGGING
  6 .debug_info   000013e0  00000000  00000000  00002b80  2**0
                  CONTENTS, READONLY, DEBUGGING
  7 .debug_abbrev 00000778  00000000  00000000  00003f60  2**0
                  CONTENTS, READONLY, DEBUGGING
  8 .debug_line   00000d64  00000000  00000000  000046d8  2**0
                  CONTENTS, READONLY, DEBUGGING
  9 .debug_frame  00000460  00000000  00000000  0000543c  2**2
                  CONTENTS, READONLY, DEBUGGING
 10 .debug_str    00000554  00000000  00000000  0000589c  2**0
                  CONTENTS, READONLY, DEBUGGING
 11 .debug_loc    00001072  00000000  00000000  00005df0  2**0
                  CONTENTS, READONLY, DEBUGGING
 12 .debug_ranges 000000f0  00000000  00000000  00006e62  2**0
                  CONTENTS, READONLY, DEBUGGING

Disassembly of section .text:

00000000 <__vectors>:
       0:	0c 94 34 00 	jmp	0x68	; 0x68 <__ctors_end>
       4:	0c 94 51 00 	jmp	0xa2	; 0xa2 <__bad_interrupt>
       8:	0c 94 51 00 	jmp	0xa2	; 0xa2 <__bad_interrupt>
       c:	0c 94 51 00 	jmp	0xa2	; 0xa2 <__bad_interrupt>
      10:	0c 94 51 00 	jmp	0xa2	; 0xa2 <__bad_interrupt>
      14:	0c 94 51 00 	jmp	0xa2	; 0xa2 <__bad_interrupt>
      18:	0c 94 51 00 	jmp	0xa2	; 0xa2 <__bad_interrupt>
      1c:	0c 94 51 00 	jmp	0xa2	; 0xa2 <__bad_interrupt>
      20:	0c 94 51 00 	jmp	0xa2	; 0xa2 <__bad_interrupt>
      24:	0c 94 51 00 	jmp	0xa2	; 0xa2 <__bad_interrupt>
      28:	0c 94 51 00 	jmp	0xa2	; 0xa2 <__bad_interrupt>
      2c:	0c 94 51 00 	jmp	0xa2	; 0xa2 <__bad_interrupt>
      30:	0c 94 51 00 	jmp	0xa2	; 0xa2 <__bad_interrupt>
      34:	0c 94 51 00 	jmp	0xa2	; 0xa2 <__bad_interrupt>
      38:	0c 94 51 00 	jmp	0xa2	; 0xa2 <__bad_interrupt>
      3c:	0c 94 51 00 	jmp	0xa2	; 0xa2 <__bad_interrupt>
      40:	0c 94 51 00 	jmp	0xa2	; 0xa2 <__bad_interrupt>
      44:	0c 94 51 00 	jmp	0xa2	; 0xa2 <__bad_interrupt>
      48:	0c 94 51 00 	jmp	0xa2	; 0xa2 <__bad_interrupt>
      4c:	0c 94 51 00 	jmp	0xa2	; 0xa2 <__bad_interrupt>
      50:	0c 94 51 00 	jmp	0xa2	; 0xa2 <__bad_interrupt>
      54:	0c 94 51 00 	jmp	0xa2	; 0xa2 <__bad_interrupt>
      58:	0c 94 51 00 	jmp	0xa2	; 0xa2 <__bad_interrupt>
      5c:	0c 94 51 00 	jmp	0xa2	; 0xa2 <__bad_interrupt>
      60:	0c 94 51 00 	jmp	0xa2	; 0xa2 <__bad_interrupt>
      64:	0c 94 51 00 	jmp	0xa2	; 0xa2 <__bad_interrupt>

00000068 <__ctors_end>:
      68:	11 24       	eor	r1, r1
      6a:	1f be       	out	0x3f, r1	; 63
      6c:	cf ef       	ldi	r28, 0xFF	; 255
      6e:	d8 e0       	ldi	r29, 0x08	; 8
      70:	de bf       	out	0x3e, r29	; 62
      72:	cd bf       	out	0x3d, r28	; 61

00000074 <__do_copy_data>:
      74:	12 e0       	ldi	r17, 0x02	; 2
      76:	a0 e0       	ldi	r26, 0x00	; 0
      78:	b1 e0       	ldi	r27, 0x01	; 1
      7a:	e6 e7       	ldi	r30, 0x76	; 118
      7c:	f1 e2       	ldi	r31, 0x21	; 33
      7e:	02 c0       	rjmp	.+4      	; 0x84 <__do_copy_data+0x10>
      80:	05 90       	lpm	r0, Z+
      82:	0d 92       	st	X+, r0
      84:	a0 30       	cpi	r26, 0x00	; 0
      86:	b1 07       	cpc	r27, r17
      88:	d9 f7       	brne	.-10     	; 0x80 <__do_copy_data+0xc>

0000008a <__do_clear_bss>:
      8a:	12 e0       	ldi	r17, 0x02	; 2
      8c:	a0 e0       	ldi	r26, 0x00	; 0
      8e:	b2 e0       	ldi	r27, 0x02	; 2
      90:	01 c0       	rjmp	.+2      	; 0x94 <.do_clear_bss_start>

00000092 <.do_clear_bss_loop>:
      92:	1d 92       	st	X+, r1

00000094 <.do_clear_bss_start>:
      94:	a5 36       	cpi	r26, 0x65	; 101
      96:	b1 07       	cpc	r27, r17
      98:	e1 f7       	brne	.-8      	; 0x92 <.do_clear_bss_loop>
      9a:	0e 94 7c 02 	call	0x4f8	; 0x4f8 <main>
      9e:	0c 94 b9 10 	jmp	0x2172	; 0x2172 <_exit>

000000a2 <__bad_interrupt>:
      a2:	0c 94 00 00 	jmp	0	; 0x0 <__vectors>

000000a6 <init>:
 */ 
#include "Initializations.h"

void init(void){
	//Init for WS2801 pins
	WS2801_DDR |= (1<<WS2801_PIN_CKI)|(1<<WS2801_PIN_SDI);
      a6:	8a b1       	in	r24, 0x0a	; 10
      a8:	88 61       	ori	r24, 0x18	; 24
      aa:	8a b9       	out	0x0a, r24	; 10
	WS2801_PORT &= ~(1<<WS2801_PIN_CKI)|~(1<<WS2801_PIN_SDI);
      ac:	8b b1       	in	r24, 0x0b	; 11
      ae:	8b b9       	out	0x0b, r24	; 11
	//Init for WS2811 pins
	WS2811_DDR |= 1<<WS2811_PIN;
      b0:	56 9a       	sbi	0x0a, 6	; 10
	WS2811_PORT &= ~(1<<WS2811_PIN);
      b2:	5e 98       	cbi	0x0b, 6	; 11
	
      b4:	08 95       	ret

000000b6 <init_SPI>:

        /*  set the MOSI, SCK and SS line as output
                SS needs to be set as output if this controller
                is the only Master 
        */
        SPI_DDR |= (1<<MOSI) | (1<<SCK) | (1<<CS) | (1<<MISO);
      b6:	84 b1       	in	r24, 0x04	; 4
      b8:	8c 63       	ori	r24, 0x3C	; 60
      ba:	84 b9       	out	0x04, r24	; 4
		DDRD |= 1<<DC;
      bc:	52 9a       	sbi	0x0a, 2	; 10
		DDRC |= 1<<RESET;
      be:	39 9a       	sbi	0x07, 1	; 7
                SPR0 = sets SPI clock to F_CPU / 16
                
                Please refer to the controller's datasheet 
                for a complete description of all available config bits
        */
        SPCR = (1<<SPE) | (1<<MSTR) | (1<<SPR0);         
      c0:	81 e5       	ldi	r24, 0x51	; 81
      c2:	8c bd       	out	0x2c, r24	; 44
}
      c4:	08 95       	ret

000000c6 <send_SPI>:

void send_SPI(uint8_t sData){
        CS_LOW;
      c6:	2a 98       	cbi	0x05, 2	; 5
        SPDR = sData;
      c8:	8e bd       	out	0x2e, r24	; 46
        
        while( !( SPSR & (1<<SPIF)) ){} // wait for end of transmission
      ca:	0d b4       	in	r0, 0x2d	; 45
      cc:	07 fe       	sbrs	r0, 7
      ce:	fd cf       	rjmp	.-6      	; 0xca <send_SPI+0x4>
		CS_HIGH;
      d0:	2a 9a       	sbi	0x05, 2	; 5
}
      d2:	08 95       	ret

000000d4 <LCD_Writ_Bus>:
 
void LCD_Writ_Bus(char data)
{
  CS_LOW;
      d4:	2a 98       	cbi	0x05, 2	; 5
      d6:	98 e0       	ldi	r25, 0x08	; 8
  for (unsigned char c=0; c<8; c++)
  {
	if (data & 0x80){
      d8:	88 23       	and	r24, r24
      da:	14 f4       	brge	.+4      	; 0xe0 <LCD_Writ_Bus+0xc>
		MOSI_HIGH;}
      dc:	2b 9a       	sbi	0x05, 3	; 5
      de:	01 c0       	rjmp	.+2      	; 0xe2 <LCD_Writ_Bus+0xe>
	else{
		MOSI_LOW;
      e0:	2b 98       	cbi	0x05, 3	; 5
	}
	data = data<<1;
      e2:	88 0f       	add	r24, r24
	SCK_LOW;
      e4:	2d 98       	cbi	0x05, 5	; 5
	asm("nop");
      e6:	00 00       	nop
	SCK_HIGH;
      e8:	2d 9a       	sbi	0x05, 5	; 5
      ea:	91 50       	subi	r25, 0x01	; 1
}
 
void LCD_Writ_Bus(char data)
{
  CS_LOW;
  for (unsigned char c=0; c<8; c++)
      ec:	a9 f7       	brne	.-22     	; 0xd8 <LCD_Writ_Bus+0x4>
	data = data<<1;
	SCK_LOW;
	asm("nop");
	SCK_HIGH;
  }
  CS_HIGH;
      ee:	2a 9a       	sbi	0x05, 2	; 5
}
      f0:	08 95       	ret

000000f2 <LCD_Write_COM>:
 
void LCD_Write_COM(char VL)  
{   
  DC_LOW;
      f2:	5a 98       	cbi	0x0b, 2	; 11
  send_SPI(VL);
      f4:	0e 94 63 00 	call	0xc6	; 0xc6 <send_SPI>
  //LCD_Writ_Bus(VL);
}
      f8:	08 95       	ret

000000fa <LCD_Write_DATA>:
 
void LCD_Write_DATA(char VL)    
{
  DC_HIGH;
      fa:	5a 9a       	sbi	0x0b, 2	; 11
  send_SPI(VL);
      fc:	0e 94 63 00 	call	0xc6	; 0xc6 <send_SPI>
  //LCD_Writ_Bus(VL);
}
     100:	08 95       	ret

00000102 <Address_set>:
 
void Address_set(unsigned int x1,unsigned int y1,unsigned int x2,unsigned int y2)
{
     102:	cf 92       	push	r12
     104:	df 92       	push	r13
     106:	ef 92       	push	r14
     108:	ff 92       	push	r15
     10a:	0f 93       	push	r16
     10c:	1f 93       	push	r17
     10e:	cf 93       	push	r28
     110:	df 93       	push	r29
     112:	f8 2e       	mov	r15, r24
     114:	e9 2e       	mov	r14, r25
     116:	c6 2f       	mov	r28, r22
     118:	d7 2f       	mov	r29, r23
     11a:	14 2f       	mov	r17, r20
     11c:	05 2f       	mov	r16, r21
     11e:	c2 2e       	mov	r12, r18
     120:	d3 2e       	mov	r13, r19
   LCD_Write_COM(0x2a);
     122:	8a e2       	ldi	r24, 0x2A	; 42
     124:	0e 94 79 00 	call	0xf2	; 0xf2 <LCD_Write_COM>
   LCD_Write_DATA(x1>>8);
     128:	8e 2d       	mov	r24, r14
     12a:	0e 94 7d 00 	call	0xfa	; 0xfa <LCD_Write_DATA>
   LCD_Write_DATA(x1);
     12e:	8f 2d       	mov	r24, r15
     130:	0e 94 7d 00 	call	0xfa	; 0xfa <LCD_Write_DATA>
   LCD_Write_DATA(x2>>8);
     134:	80 2f       	mov	r24, r16
     136:	0e 94 7d 00 	call	0xfa	; 0xfa <LCD_Write_DATA>
   LCD_Write_DATA(x2);
     13a:	81 2f       	mov	r24, r17
     13c:	0e 94 7d 00 	call	0xfa	; 0xfa <LCD_Write_DATA>
 
   LCD_Write_COM(0x2b);
     140:	8b e2       	ldi	r24, 0x2B	; 43
     142:	0e 94 79 00 	call	0xf2	; 0xf2 <LCD_Write_COM>
   LCD_Write_DATA(y1>>8);
     146:	8d 2f       	mov	r24, r29
     148:	0e 94 7d 00 	call	0xfa	; 0xfa <LCD_Write_DATA>
   LCD_Write_DATA(y1);
     14c:	8c 2f       	mov	r24, r28
     14e:	0e 94 7d 00 	call	0xfa	; 0xfa <LCD_Write_DATA>
   LCD_Write_DATA(y2>>8);
     152:	8d 2d       	mov	r24, r13
     154:	0e 94 7d 00 	call	0xfa	; 0xfa <LCD_Write_DATA>
   LCD_Write_DATA(y2);
     158:	8c 2d       	mov	r24, r12
     15a:	0e 94 7d 00 	call	0xfa	; 0xfa <LCD_Write_DATA>
 
   LCD_Write_COM(0x2C);         				 
     15e:	8c e2       	ldi	r24, 0x2C	; 44
     160:	0e 94 79 00 	call	0xf2	; 0xf2 <LCD_Write_COM>
}
     164:	df 91       	pop	r29
     166:	cf 91       	pop	r28
     168:	1f 91       	pop	r17
     16a:	0f 91       	pop	r16
     16c:	ff 90       	pop	r15
     16e:	ef 90       	pop	r14
     170:	df 90       	pop	r13
     172:	cf 90       	pop	r12
     174:	08 95       	ret

00000176 <LCD_Init>:
 
void LCD_Init(void)
{
	init_SPI();
     176:	0e 94 5b 00 	call	0xb6	; 0xb6 <init_SPI>
 
    RESET_LOW;
     17a:	41 98       	cbi	0x08, 1	; 8
	#else
		//round up by default
		__ticks_dc = (uint32_t)(ceil(fabs(__tmp)));
	#endif

	__builtin_avr_delay_cycles(__ticks_dc);
     17c:	8f ef       	ldi	r24, 0xFF	; 255
     17e:	91 ee       	ldi	r25, 0xE1	; 225
     180:	a4 e0       	ldi	r26, 0x04	; 4
     182:	81 50       	subi	r24, 0x01	; 1
     184:	90 40       	sbci	r25, 0x00	; 0
     186:	a0 40       	sbci	r26, 0x00	; 0
     188:	e1 f7       	brne	.-8      	; 0x182 <LCD_Init+0xc>
     18a:	00 c0       	rjmp	.+0      	; 0x18c <LCD_Init+0x16>
     18c:	00 00       	nop
	_delay_ms(100);
	RESET_HIGH;
     18e:	41 9a       	sbi	0x08, 1	; 8
 
        LCD_Write_COM(0xCB);
     190:	8b ec       	ldi	r24, 0xCB	; 203
     192:	0e 94 79 00 	call	0xf2	; 0xf2 <LCD_Write_COM>
        LCD_Write_DATA(0x39);
     196:	89 e3       	ldi	r24, 0x39	; 57
     198:	0e 94 7d 00 	call	0xfa	; 0xfa <LCD_Write_DATA>
        LCD_Write_DATA(0x2C);
     19c:	8c e2       	ldi	r24, 0x2C	; 44
     19e:	0e 94 7d 00 	call	0xfa	; 0xfa <LCD_Write_DATA>
        LCD_Write_DATA(0x00);
     1a2:	80 e0       	ldi	r24, 0x00	; 0
     1a4:	0e 94 7d 00 	call	0xfa	; 0xfa <LCD_Write_DATA>
        LCD_Write_DATA(0x34);
     1a8:	84 e3       	ldi	r24, 0x34	; 52
     1aa:	0e 94 7d 00 	call	0xfa	; 0xfa <LCD_Write_DATA>
        LCD_Write_DATA(0x02);
     1ae:	82 e0       	ldi	r24, 0x02	; 2
     1b0:	0e 94 7d 00 	call	0xfa	; 0xfa <LCD_Write_DATA>
        
        LCD_Write_COM(0xCF);
     1b4:	8f ec       	ldi	r24, 0xCF	; 207
     1b6:	0e 94 79 00 	call	0xf2	; 0xf2 <LCD_Write_COM>
        LCD_Write_DATA(0x00);
     1ba:	80 e0       	ldi	r24, 0x00	; 0
     1bc:	0e 94 7d 00 	call	0xfa	; 0xfa <LCD_Write_DATA>
        LCD_Write_DATA(0XC1);
     1c0:	81 ec       	ldi	r24, 0xC1	; 193
     1c2:	0e 94 7d 00 	call	0xfa	; 0xfa <LCD_Write_DATA>
        LCD_Write_DATA(0X30);
     1c6:	80 e3       	ldi	r24, 0x30	; 48
     1c8:	0e 94 7d 00 	call	0xfa	; 0xfa <LCD_Write_DATA>
        
        LCD_Write_COM(0xE8);
     1cc:	88 ee       	ldi	r24, 0xE8	; 232
     1ce:	0e 94 79 00 	call	0xf2	; 0xf2 <LCD_Write_COM>
        LCD_Write_DATA(0x85);
     1d2:	85 e8       	ldi	r24, 0x85	; 133
     1d4:	0e 94 7d 00 	call	0xfa	; 0xfa <LCD_Write_DATA>
        LCD_Write_DATA(0x00);
     1d8:	80 e0       	ldi	r24, 0x00	; 0
     1da:	0e 94 7d 00 	call	0xfa	; 0xfa <LCD_Write_DATA>
        LCD_Write_DATA(0x78);
     1de:	88 e7       	ldi	r24, 0x78	; 120
     1e0:	0e 94 7d 00 	call	0xfa	; 0xfa <LCD_Write_DATA>
        
        LCD_Write_COM(0xEA);
     1e4:	8a ee       	ldi	r24, 0xEA	; 234
     1e6:	0e 94 79 00 	call	0xf2	; 0xf2 <LCD_Write_COM>
        LCD_Write_DATA(0x00);
     1ea:	80 e0       	ldi	r24, 0x00	; 0
     1ec:	0e 94 7d 00 	call	0xfa	; 0xfa <LCD_Write_DATA>
        LCD_Write_DATA(0x00);
     1f0:	80 e0       	ldi	r24, 0x00	; 0
     1f2:	0e 94 7d 00 	call	0xfa	; 0xfa <LCD_Write_DATA>
        
        LCD_Write_COM(0xED);
     1f6:	8d ee       	ldi	r24, 0xED	; 237
     1f8:	0e 94 79 00 	call	0xf2	; 0xf2 <LCD_Write_COM>
        LCD_Write_DATA(0x64);
     1fc:	84 e6       	ldi	r24, 0x64	; 100
     1fe:	0e 94 7d 00 	call	0xfa	; 0xfa <LCD_Write_DATA>
        LCD_Write_DATA(0x03);
     202:	83 e0       	ldi	r24, 0x03	; 3
     204:	0e 94 7d 00 	call	0xfa	; 0xfa <LCD_Write_DATA>
        LCD_Write_DATA(0X12);
     208:	82 e1       	ldi	r24, 0x12	; 18
     20a:	0e 94 7d 00 	call	0xfa	; 0xfa <LCD_Write_DATA>
        LCD_Write_DATA(0X81);
     20e:	81 e8       	ldi	r24, 0x81	; 129
     210:	0e 94 7d 00 	call	0xfa	; 0xfa <LCD_Write_DATA>
        
        LCD_Write_COM(0xF7);
     214:	87 ef       	ldi	r24, 0xF7	; 247
     216:	0e 94 79 00 	call	0xf2	; 0xf2 <LCD_Write_COM>
        LCD_Write_DATA(0x20);
     21a:	80 e2       	ldi	r24, 0x20	; 32
     21c:	0e 94 7d 00 	call	0xfa	; 0xfa <LCD_Write_DATA>
 
        LCD_Write_COM(0xC0);    //Power control 
     220:	80 ec       	ldi	r24, 0xC0	; 192
     222:	0e 94 79 00 	call	0xf2	; 0xf2 <LCD_Write_COM>
        LCD_Write_DATA(0x09);   //VRH[5:0] 3V3
     226:	89 e0       	ldi	r24, 0x09	; 9
     228:	0e 94 7d 00 	call	0xfa	; 0xfa <LCD_Write_DATA>
 
        LCD_Write_COM(0xC1);    //Power control 
     22c:	81 ec       	ldi	r24, 0xC1	; 193
     22e:	0e 94 79 00 	call	0xf2	; 0xf2 <LCD_Write_COM>
        LCD_Write_DATA(0x10);   //SAP[2:0];BT[3:0] 
     232:	80 e1       	ldi	r24, 0x10	; 16
     234:	0e 94 7d 00 	call	0xfa	; 0xfa <LCD_Write_DATA>
 
        LCD_Write_COM(0xC5);    //VCM control 
     238:	85 ec       	ldi	r24, 0xC5	; 197
     23a:	0e 94 79 00 	call	0xf2	; 0xf2 <LCD_Write_COM>
        LCD_Write_DATA(0x3e);   //Contrast
     23e:	8e e3       	ldi	r24, 0x3E	; 62
     240:	0e 94 7d 00 	call	0xfa	; 0xfa <LCD_Write_DATA>
        LCD_Write_DATA(0x28); 
     244:	88 e2       	ldi	r24, 0x28	; 40
     246:	0e 94 7d 00 	call	0xfa	; 0xfa <LCD_Write_DATA>
 
        LCD_Write_COM(0xC7);    //VCM control2 
     24a:	87 ec       	ldi	r24, 0xC7	; 199
     24c:	0e 94 79 00 	call	0xf2	; 0xf2 <LCD_Write_COM>
        LCD_Write_DATA(0x86);   //--
     250:	86 e8       	ldi	r24, 0x86	; 134
     252:	0e 94 7d 00 	call	0xfa	; 0xfa <LCD_Write_DATA>
 
        LCD_Write_COM(0x36);    // Memory Access Control 
     256:	86 e3       	ldi	r24, 0x36	; 54
     258:	0e 94 79 00 	call	0xf2	; 0xf2 <LCD_Write_COM>
        LCD_Write_DATA(0x48);   //C8	   //48 68???//28 E8 ???
     25c:	88 e4       	ldi	r24, 0x48	; 72
     25e:	0e 94 7d 00 	call	0xfa	; 0xfa <LCD_Write_DATA>
 
        LCD_Write_COM(0x3A);    // COLMOD: Pixel Format Set
     262:	8a e3       	ldi	r24, 0x3A	; 58
     264:	0e 94 79 00 	call	0xf2	; 0xf2 <LCD_Write_COM>
        LCD_Write_DATA(0x55); 
     268:	85 e5       	ldi	r24, 0x55	; 85
     26a:	0e 94 7d 00 	call	0xfa	; 0xfa <LCD_Write_DATA>
 
        LCD_Write_COM(0xB1);    // Frame control
     26e:	81 eb       	ldi	r24, 0xB1	; 177
     270:	0e 94 79 00 	call	0xf2	; 0xf2 <LCD_Write_COM>
        LCD_Write_DATA(0x00);  
     274:	80 e0       	ldi	r24, 0x00	; 0
     276:	0e 94 7d 00 	call	0xfa	; 0xfa <LCD_Write_DATA>
        LCD_Write_DATA(0x18); 
     27a:	88 e1       	ldi	r24, 0x18	; 24
     27c:	0e 94 7d 00 	call	0xfa	; 0xfa <LCD_Write_DATA>
 
        LCD_Write_COM(0xB6);    // Display Function Control 
     280:	86 eb       	ldi	r24, 0xB6	; 182
     282:	0e 94 79 00 	call	0xf2	; 0xf2 <LCD_Write_COM>
        LCD_Write_DATA(0x08); 
     286:	88 e0       	ldi	r24, 0x08	; 8
     288:	0e 94 7d 00 	call	0xfa	; 0xfa <LCD_Write_DATA>
        LCD_Write_DATA(0x82);
     28c:	82 e8       	ldi	r24, 0x82	; 130
     28e:	0e 94 7d 00 	call	0xfa	; 0xfa <LCD_Write_DATA>
        LCD_Write_DATA(0x27);  
     292:	87 e2       	ldi	r24, 0x27	; 39
     294:	0e 94 7d 00 	call	0xfa	; 0xfa <LCD_Write_DATA>
        LCD_Write_DATA(0x0C); 
        LCD_Write_DATA(0x31); 
        LCD_Write_DATA(0x36); 
        LCD_Write_DATA(0x0F); 
*/
        LCD_Write_COM(0x11);    //Exit Sleep 
     298:	81 e1       	ldi	r24, 0x11	; 17
     29a:	0e 94 79 00 	call	0xf2	; 0xf2 <LCD_Write_COM>
     29e:	8f ef       	ldi	r24, 0xFF	; 255
     2a0:	9b ed       	ldi	r25, 0xDB	; 219
     2a2:	a5 e0       	ldi	r26, 0x05	; 5
     2a4:	81 50       	subi	r24, 0x01	; 1
     2a6:	90 40       	sbci	r25, 0x00	; 0
     2a8:	a0 40       	sbci	r26, 0x00	; 0
     2aa:	e1 f7       	brne	.-8      	; 0x2a4 <LCD_Init+0x12e>
     2ac:	00 c0       	rjmp	.+0      	; 0x2ae <LCD_Init+0x138>
     2ae:	00 00       	nop
        _delay_ms(120); 
 
        LCD_Write_COM(0x29);    //Display on 
     2b0:	89 e2       	ldi	r24, 0x29	; 41
     2b2:	0e 94 79 00 	call	0xf2	; 0xf2 <LCD_Write_COM>
        LCD_Write_COM(0x2c);   
     2b6:	8c e2       	ldi	r24, 0x2C	; 44
     2b8:	0e 94 79 00 	call	0xf2	; 0xf2 <LCD_Write_COM>
		
		
}
     2bc:	08 95       	ret

000002be <Paint>:
 
void Paint(char VL)
{
     2be:	cf 92       	push	r12
     2c0:	df 92       	push	r13
     2c2:	ef 92       	push	r14
     2c4:	ff 92       	push	r15
     2c6:	1f 93       	push	r17
     2c8:	cf 93       	push	r28
     2ca:	df 93       	push	r29
     2cc:	18 2f       	mov	r17, r24
  int i,j;
  Address_set(0,0,240,320);
     2ce:	80 e0       	ldi	r24, 0x00	; 0
     2d0:	90 e0       	ldi	r25, 0x00	; 0
     2d2:	60 e0       	ldi	r22, 0x00	; 0
     2d4:	70 e0       	ldi	r23, 0x00	; 0
     2d6:	40 ef       	ldi	r20, 0xF0	; 240
     2d8:	50 e0       	ldi	r21, 0x00	; 0
     2da:	20 e4       	ldi	r18, 0x40	; 64
     2dc:	31 e0       	ldi	r19, 0x01	; 1
     2de:	0e 94 81 00 	call	0x102	; 0x102 <Address_set>
     2e2:	0f 2e       	mov	r0, r31
     2e4:	f0 e4       	ldi	r31, 0x40	; 64
     2e6:	ef 2e       	mov	r14, r31
     2e8:	f1 e0       	ldi	r31, 0x01	; 1
     2ea:	ff 2e       	mov	r15, r31
     2ec:	f0 2d       	mov	r31, r0
		
		
}
 
void Paint(char VL)
{
     2ee:	0f 2e       	mov	r0, r31
     2f0:	f0 ef       	ldi	r31, 0xF0	; 240
     2f2:	cf 2e       	mov	r12, r31
     2f4:	dd 24       	eor	r13, r13
     2f6:	f0 2d       	mov	r31, r0
     2f8:	0b c0       	rjmp	.+22     	; 0x310 <Paint+0x52>
  Address_set(0,0,240,320);
  for(i=0;i<320;i++)
  {
    for (j=0;j<240;j++)
    {
      LCD_Write_DATA(VL);
     2fa:	81 2f       	mov	r24, r17
     2fc:	0e 94 7d 00 	call	0xfa	; 0xfa <LCD_Write_DATA>
     300:	21 97       	sbiw	r28, 0x01	; 1
{
  int i,j;
  Address_set(0,0,240,320);
  for(i=0;i<320;i++)
  {
    for (j=0;j<240;j++)
     302:	d9 f7       	brne	.-10     	; 0x2fa <Paint+0x3c>
     304:	08 94       	sec
     306:	e1 08       	sbc	r14, r1
     308:	f1 08       	sbc	r15, r1
 
void Paint(char VL)
{
  int i,j;
  Address_set(0,0,240,320);
  for(i=0;i<320;i++)
     30a:	e1 14       	cp	r14, r1
     30c:	f1 04       	cpc	r15, r1
     30e:	11 f0       	breq	.+4      	; 0x314 <Paint+0x56>
		
		
}
 
void Paint(char VL)
{
     310:	e6 01       	movw	r28, r12
     312:	f3 cf       	rjmp	.-26     	; 0x2fa <Paint+0x3c>
    for (j=0;j<240;j++)
    {
      LCD_Write_DATA(VL);
    }
  }
}
     314:	df 91       	pop	r29
     316:	cf 91       	pop	r28
     318:	1f 91       	pop	r17
     31a:	ff 90       	pop	r15
     31c:	ef 90       	pop	r14
     31e:	df 90       	pop	r13
     320:	cf 90       	pop	r12
     322:	08 95       	ret

00000324 <setup>:
 
void setup()
{
  LCD_Init();  
     324:	0e 94 bb 00 	call	0x176	; 0x176 <LCD_Init>
}
     328:	08 95       	ret

0000032a <loop>:
 
void loop()
{  
  Paint(0xFF);
     32a:	8f ef       	ldi	r24, 0xFF	; 255
     32c:	0e 94 5f 01 	call	0x2be	; 0x2be <Paint>
  Paint(0xF0); 
     330:	80 ef       	ldi	r24, 0xF0	; 240
     332:	0e 94 5f 01 	call	0x2be	; 0x2be <Paint>
  Paint(0xE0);
     336:	80 ee       	ldi	r24, 0xE0	; 224
     338:	0e 94 5f 01 	call	0x2be	; 0x2be <Paint>
  Paint(0x05);
     33c:	85 e0       	ldi	r24, 0x05	; 5
     33e:	0e 94 5f 01 	call	0x2be	; 0x2be <Paint>
  Paint(0x1F);
     342:	8f e1       	ldi	r24, 0x1F	; 31
     344:	0e 94 5f 01 	call	0x2be	; 0x2be <Paint>
  Paint(0x00);
     348:	80 e0       	ldi	r24, 0x00	; 0
     34a:	0e 94 5f 01 	call	0x2be	; 0x2be <Paint>
     34e:	08 95       	ret

00000350 <WS2801_Update>:
     350:	cf 93       	push	r28
     352:	df 93       	push	r29
     354:	e0 e0       	ldi	r30, 0x00	; 0
     356:	f2 e0       	ldi	r31, 0x02	; 2
     358:	c2 e0       	ldi	r28, 0x02	; 2
     35a:	a7 e0       	ldi	r26, 0x07	; 7
     35c:	b0 e0       	ldi	r27, 0x00	; 0
     35e:	61 e0       	ldi	r22, 0x01	; 1
     360:	70 e0       	ldi	r23, 0x00	; 0
     362:	df e0       	ldi	r29, 0x0F	; 15
     364:	1f c0       	rjmp	.+62     	; 0x3a4 <WS2801_Update+0x54>
     366:	5c 98       	cbi	0x0b, 4	; 11
     368:	ab 01       	movw	r20, r22
     36a:	02 2e       	mov	r0, r18
     36c:	02 c0       	rjmp	.+4      	; 0x372 <WS2801_Update+0x22>
     36e:	44 0f       	add	r20, r20
     370:	55 1f       	adc	r21, r21
     372:	0a 94       	dec	r0
     374:	e2 f7       	brpl	.-8      	; 0x36e <WS2801_Update+0x1e>
     376:	80 81       	ld	r24, Z
     378:	90 e0       	ldi	r25, 0x00	; 0
     37a:	84 23       	and	r24, r20
     37c:	95 23       	and	r25, r21
     37e:	00 97       	sbiw	r24, 0x00	; 0
     380:	11 f0       	breq	.+4      	; 0x386 <WS2801_Update+0x36>
     382:	5b 98       	cbi	0x0b, 3	; 11
     384:	01 c0       	rjmp	.+2      	; 0x388 <WS2801_Update+0x38>
     386:	5b 9a       	sbi	0x0b, 3	; 11
     388:	5c 9a       	sbi	0x0b, 4	; 11
     38a:	21 50       	subi	r18, 0x01	; 1
     38c:	30 40       	sbci	r19, 0x00	; 0
     38e:	59 f7       	brne	.-42     	; 0x366 <WS2801_Update+0x16>
     390:	8d 2f       	mov	r24, r29
     392:	5c 98       	cbi	0x0b, 4	; 11
     394:	5b 98       	cbi	0x0b, 3	; 11
     396:	5c 9a       	sbi	0x0b, 4	; 11
     398:	81 50       	subi	r24, 0x01	; 1
     39a:	d9 f7       	brne	.-10     	; 0x392 <WS2801_Update+0x42>
     39c:	c1 50       	subi	r28, 0x01	; 1
     39e:	31 96       	adiw	r30, 0x01	; 1
     3a0:	cc 23       	and	r28, r28
     3a2:	11 f0       	breq	.+4      	; 0x3a8 <WS2801_Update+0x58>
     3a4:	9d 01       	movw	r18, r26
     3a6:	df cf       	rjmp	.-66     	; 0x366 <WS2801_Update+0x16>
	#else
		//round up by default
		__ticks_dc = (uint32_t)(ceil(fabs(__tmp)));
	#endif

	__builtin_avr_delay_cycles(__ticks_dc);
     3a8:	8f ec       	ldi	r24, 0xCF	; 207
     3aa:	97 e0       	ldi	r25, 0x07	; 7
     3ac:	01 97       	sbiw	r24, 0x01	; 1
     3ae:	f1 f7       	brne	.-4      	; 0x3ac <WS2801_Update+0x5c>
     3b0:	00 c0       	rjmp	.+0      	; 0x3b2 <WS2801_Update+0x62>
     3b2:	00 00       	nop
     3b4:	df 91       	pop	r29
     3b6:	cf 91       	pop	r28
     3b8:	08 95       	ret

000003ba <WS2801_SetColor>:
     3ba:	80 93 00 02 	sts	0x0200, r24
     3be:	08 95       	ret

000003c0 <WS2801_SetColorUpdate>:
     3c0:	80 93 00 02 	sts	0x0200, r24
     3c4:	0e 94 a8 01 	call	0x350	; 0x350 <WS2801_Update>
     3c8:	08 95       	ret

000003ca <WS2801_Set_Delay_Update>:
     3ca:	4f 92       	push	r4
     3cc:	5f 92       	push	r5
     3ce:	6f 92       	push	r6
     3d0:	7f 92       	push	r7
     3d2:	8f 92       	push	r8
     3d4:	9f 92       	push	r9
     3d6:	af 92       	push	r10
     3d8:	bf 92       	push	r11
     3da:	ef 92       	push	r14
     3dc:	0f 93       	push	r16
     3de:	1f 93       	push	r17
     3e0:	2a 01       	movw	r4, r20
     3e2:	3b 01       	movw	r6, r22
     3e4:	48 01       	movw	r8, r16
     3e6:	59 01       	movw	r10, r18
     3e8:	80 93 00 02 	sts	0x0200, r24
     3ec:	0e 94 a8 01 	call	0x350	; 0x350 <WS2801_Update>
     3f0:	81 e0       	ldi	r24, 0x01	; 1
     3f2:	e8 16       	cp	r14, r24
     3f4:	11 f4       	brne	.+4      	; 0x3fa <WS2801_Set_Delay_Update+0x30>
     3f6:	0e 94 7c 0d 	call	0x1af8	; 0x1af8 <WS2811_Update>
     3fa:	81 14       	cp	r8, r1
     3fc:	91 04       	cpc	r9, r1
     3fe:	a1 04       	cpc	r10, r1
     400:	b1 04       	cpc	r11, r1
     402:	e9 f4       	brne	.+58     	; 0x43e <WS2801_Set_Delay_Update+0x74>
     404:	23 c0       	rjmp	.+70     	; 0x44c <WS2801_Set_Delay_Update+0x82>
	...
     426:	21 50       	subi	r18, 0x01	; 1
     428:	30 40       	sbci	r19, 0x00	; 0
     42a:	69 f7       	brne	.-38     	; 0x406 <WS2801_Set_Delay_Update+0x3c>
     42c:	01 96       	adiw	r24, 0x01	; 1
     42e:	a1 1d       	adc	r26, r1
     430:	b1 1d       	adc	r27, r1
     432:	88 15       	cp	r24, r8
     434:	99 05       	cpc	r25, r9
     436:	aa 05       	cpc	r26, r10
     438:	bb 05       	cpc	r27, r11
     43a:	31 f4       	brne	.+12     	; 0x448 <WS2801_Set_Delay_Update+0x7e>
     43c:	07 c0       	rjmp	.+14     	; 0x44c <WS2801_Set_Delay_Update+0x82>
     43e:	80 e0       	ldi	r24, 0x00	; 0
     440:	90 e0       	ldi	r25, 0x00	; 0
     442:	dc 01       	movw	r26, r24
     444:	4b e1       	ldi	r20, 0x1B	; 27
     446:	53 e0       	ldi	r21, 0x03	; 3
     448:	9a 01       	movw	r18, r20
     44a:	dd cf       	rjmp	.-70     	; 0x406 <WS2801_Set_Delay_Update+0x3c>
     44c:	10 92 00 02 	sts	0x0200, r1
     450:	0e 94 a8 01 	call	0x350	; 0x350 <WS2801_Update>
     454:	84 14       	cp	r8, r4
     456:	95 04       	cpc	r9, r5
     458:	a6 04       	cpc	r10, r6
     45a:	b7 04       	cpc	r11, r7
     45c:	08 f0       	brcs	.+2      	; 0x460 <WS2801_Set_Delay_Update+0x96>
     45e:	2b c0       	rjmp	.+86     	; 0x4b6 <WS2801_Set_Delay_Update+0xec>
     460:	b3 01       	movw	r22, r6
     462:	a2 01       	movw	r20, r4
     464:	48 19       	sub	r20, r8
     466:	59 09       	sbc	r21, r9
     468:	6a 09       	sbc	r22, r10
     46a:	7b 09       	sbc	r23, r11
     46c:	e9 f4       	brne	.+58     	; 0x4a8 <WS2801_Set_Delay_Update+0xde>
     46e:	23 c0       	rjmp	.+70     	; 0x4b6 <WS2801_Set_Delay_Update+0xec>
	...
     490:	21 50       	subi	r18, 0x01	; 1
     492:	30 40       	sbci	r19, 0x00	; 0
     494:	69 f7       	brne	.-38     	; 0x470 <WS2801_Set_Delay_Update+0xa6>
     496:	01 96       	adiw	r24, 0x01	; 1
     498:	a1 1d       	adc	r26, r1
     49a:	b1 1d       	adc	r27, r1
     49c:	84 17       	cp	r24, r20
     49e:	95 07       	cpc	r25, r21
     4a0:	a6 07       	cpc	r26, r22
     4a2:	b7 07       	cpc	r27, r23
     4a4:	31 f4       	brne	.+12     	; 0x4b2 <WS2801_Set_Delay_Update+0xe8>
     4a6:	07 c0       	rjmp	.+14     	; 0x4b6 <WS2801_Set_Delay_Update+0xec>
     4a8:	80 e0       	ldi	r24, 0x00	; 0
     4aa:	90 e0       	ldi	r25, 0x00	; 0
     4ac:	dc 01       	movw	r26, r24
     4ae:	eb e1       	ldi	r30, 0x1B	; 27
     4b0:	f3 e0       	ldi	r31, 0x03	; 3
     4b2:	9f 01       	movw	r18, r30
     4b4:	dd cf       	rjmp	.-70     	; 0x470 <WS2801_Set_Delay_Update+0xa6>
     4b6:	1f 91       	pop	r17
     4b8:	0f 91       	pop	r16
     4ba:	ef 90       	pop	r14
     4bc:	bf 90       	pop	r11
     4be:	af 90       	pop	r10
     4c0:	9f 90       	pop	r9
     4c2:	8f 90       	pop	r8
     4c4:	7f 90       	pop	r7
     4c6:	6f 90       	pop	r6
     4c8:	5f 90       	pop	r5
     4ca:	4f 90       	pop	r4
     4cc:	08 95       	ret

000004ce <WS2801_Set_Delay_Update_All>:
     4ce:	ef 92       	push	r14
     4d0:	0f 93       	push	r16
     4d2:	1f 93       	push	r17
     4d4:	cf 93       	push	r28
     4d6:	ce 2d       	mov	r28, r14
     4d8:	0e 94 e5 01 	call	0x3ca	; 0x3ca <WS2801_Set_Delay_Update>
     4dc:	85 e0       	ldi	r24, 0x05	; 5
     4de:	90 e0       	ldi	r25, 0x00	; 0
     4e0:	41 e0       	ldi	r20, 0x01	; 1
     4e2:	50 e0       	ldi	r21, 0x00	; 0
     4e4:	60 e0       	ldi	r22, 0x00	; 0
     4e6:	70 e0       	ldi	r23, 0x00	; 0
     4e8:	2c 2f       	mov	r18, r28
     4ea:	0e 94 10 0f 	call	0x1e20	; 0x1e20 <WS2811_SetGroupColorUpdate>
     4ee:	cf 91       	pop	r28
     4f0:	1f 91       	pop	r17
     4f2:	0f 91       	pop	r16
     4f4:	ef 90       	pop	r14
     4f6:	08 95       	ret

000004f8 <main>:
	#else
		//round up by default
		__ticks_dc = (uint32_t)(ceil(fabs(__tmp)));
	#endif

	__builtin_avr_delay_cycles(__ticks_dc);
     4f8:	8f ef       	ldi	r24, 0xFF	; 255
     4fa:	93 ed       	ldi	r25, 0xD3	; 211
     4fc:	a0 e3       	ldi	r26, 0x30	; 48
     4fe:	81 50       	subi	r24, 0x01	; 1
     500:	90 40       	sbci	r25, 0x00	; 0
     502:	a0 40       	sbci	r26, 0x00	; 0
     504:	e1 f7       	brne	.-8      	; 0x4fe <main+0x6>
     506:	00 c0       	rjmp	.+0      	; 0x508 <main+0x10>
     508:	00 00       	nop
// 	WS2811_Update();
	
	
#ifdef LCD_TEST
	_delay_ms(1000);
	setup();
     50a:	0e 94 92 01 	call	0x324	; 0x324 <setup>
    {
		//SONGMIX1();
		//ALLON();
		
		#ifdef LCD_TEST
		loop();
     50e:	0e 94 95 01 	call	0x32a	; 0x32a <loop>
     512:	fd cf       	rjmp	.-6      	; 0x50e <main+0x16>

00000514 <DEEL3>:
WS2801_Set_Delay_Update(Intensity, 311-ROTATE_DELAY, LS_DELAY_1, Ja); //311
WS2811_SetGroupColor(GroupAll, COLOR_UIT, Neen);
WS2801_Set_Delay_Update(Intensity, 810, LS_DELAY_1, Ja); //810
}

void DEEL3(Intensity){
     514:	ef 92       	push	r14
     516:	0f 93       	push	r16
     518:	1f 93       	push	r17
     51a:	cf 93       	push	r28
     51c:	c8 2f       	mov	r28, r24
long Naar_Climax = 0xffffff;
#define DECREMENT Naar_Climax -= 0x505050;

WS2811_SetGroupColor(GroupAll, Naar_Climax, Ja);
     51e:	86 e0       	ldi	r24, 0x06	; 6
     520:	90 e0       	ldi	r25, 0x00	; 0
     522:	4f ef       	ldi	r20, 0xFF	; 255
     524:	5f ef       	ldi	r21, 0xFF	; 255
     526:	6f ef       	ldi	r22, 0xFF	; 255
     528:	70 e0       	ldi	r23, 0x00	; 0
     52a:	21 e0       	ldi	r18, 0x01	; 1
     52c:	0e 94 55 0e 	call	0x1caa	; 0x1caa <WS2811_SetGroupColor>
WS2801_Set_Delay_Update(Intensity, 308, LS_DELAY_1, Ja); //308
     530:	8c 2f       	mov	r24, r28
     532:	44 e3       	ldi	r20, 0x34	; 52
     534:	51 e0       	ldi	r21, 0x01	; 1
     536:	60 e0       	ldi	r22, 0x00	; 0
     538:	70 e0       	ldi	r23, 0x00	; 0
     53a:	0a ef       	ldi	r16, 0xFA	; 250
     53c:	10 e0       	ldi	r17, 0x00	; 0
     53e:	20 e0       	ldi	r18, 0x00	; 0
     540:	30 e0       	ldi	r19, 0x00	; 0
     542:	ee 24       	eor	r14, r14
     544:	e3 94       	inc	r14
     546:	0e 94 e5 01 	call	0x3ca	; 0x3ca <WS2801_Set_Delay_Update>
DECREMENT
WS2811_SetGroupColor(GroupAll, Naar_Climax, Ja);
     54a:	86 e0       	ldi	r24, 0x06	; 6
     54c:	90 e0       	ldi	r25, 0x00	; 0
     54e:	4f ea       	ldi	r20, 0xAF	; 175
     550:	5f ea       	ldi	r21, 0xAF	; 175
     552:	6f ea       	ldi	r22, 0xAF	; 175
     554:	70 e0       	ldi	r23, 0x00	; 0
     556:	21 e0       	ldi	r18, 0x01	; 1
     558:	0e 94 55 0e 	call	0x1caa	; 0x1caa <WS2811_SetGroupColor>
WS2801_Set_Delay_Update(Intensity, 377, LS_DELAY_1, Ja); //377
     55c:	8c 2f       	mov	r24, r28
     55e:	49 e7       	ldi	r20, 0x79	; 121
     560:	51 e0       	ldi	r21, 0x01	; 1
     562:	60 e0       	ldi	r22, 0x00	; 0
     564:	70 e0       	ldi	r23, 0x00	; 0
     566:	0a ef       	ldi	r16, 0xFA	; 250
     568:	10 e0       	ldi	r17, 0x00	; 0
     56a:	20 e0       	ldi	r18, 0x00	; 0
     56c:	30 e0       	ldi	r19, 0x00	; 0
     56e:	0e 94 e5 01 	call	0x3ca	; 0x3ca <WS2801_Set_Delay_Update>
DECREMENT
WS2811_SetGroupColor(GroupAll, Naar_Climax, Ja);
     572:	86 e0       	ldi	r24, 0x06	; 6
     574:	90 e0       	ldi	r25, 0x00	; 0
     576:	4f e5       	ldi	r20, 0x5F	; 95
     578:	5f e5       	ldi	r21, 0x5F	; 95
     57a:	6f e5       	ldi	r22, 0x5F	; 95
     57c:	70 e0       	ldi	r23, 0x00	; 0
     57e:	21 e0       	ldi	r18, 0x01	; 1
     580:	0e 94 55 0e 	call	0x1caa	; 0x1caa <WS2811_SetGroupColor>
WS2811_SetGroupColor(GroupAll, Naar_Climax, Speciaal);
     584:	86 e0       	ldi	r24, 0x06	; 6
     586:	90 e0       	ldi	r25, 0x00	; 0
     588:	4f e5       	ldi	r20, 0x5F	; 95
     58a:	5f e5       	ldi	r21, 0x5F	; 95
     58c:	6f e5       	ldi	r22, 0x5F	; 95
     58e:	70 e0       	ldi	r23, 0x00	; 0
     590:	25 e0       	ldi	r18, 0x05	; 5
     592:	0e 94 55 0e 	call	0x1caa	; 0x1caa <WS2811_SetGroupColor>
WS2801_Set_Delay_Update(Intensity, 391, LS_DELAY_1, Ja); //391
     596:	8c 2f       	mov	r24, r28
     598:	47 e8       	ldi	r20, 0x87	; 135
     59a:	51 e0       	ldi	r21, 0x01	; 1
     59c:	60 e0       	ldi	r22, 0x00	; 0
     59e:	70 e0       	ldi	r23, 0x00	; 0
     5a0:	0a ef       	ldi	r16, 0xFA	; 250
     5a2:	10 e0       	ldi	r17, 0x00	; 0
     5a4:	20 e0       	ldi	r18, 0x00	; 0
     5a6:	30 e0       	ldi	r19, 0x00	; 0
     5a8:	0e 94 e5 01 	call	0x3ca	; 0x3ca <WS2801_Set_Delay_Update>
DECREMENT
WS2811_SetGroupColor(GroupAll, Naar_Climax, Ja);
     5ac:	86 e0       	ldi	r24, 0x06	; 6
     5ae:	90 e0       	ldi	r25, 0x00	; 0
     5b0:	4f e0       	ldi	r20, 0x0F	; 15
     5b2:	5f e0       	ldi	r21, 0x0F	; 15
     5b4:	6f e0       	ldi	r22, 0x0F	; 15
     5b6:	70 e0       	ldi	r23, 0x00	; 0
     5b8:	21 e0       	ldi	r18, 0x01	; 1
     5ba:	0e 94 55 0e 	call	0x1caa	; 0x1caa <WS2811_SetGroupColor>
WS2801_Set_Delay_Update(Intensity, 304, LS_DELAY_1, Ja); //304
     5be:	8c 2f       	mov	r24, r28
     5c0:	40 e3       	ldi	r20, 0x30	; 48
     5c2:	51 e0       	ldi	r21, 0x01	; 1
     5c4:	60 e0       	ldi	r22, 0x00	; 0
     5c6:	70 e0       	ldi	r23, 0x00	; 0
     5c8:	0a ef       	ldi	r16, 0xFA	; 250
     5ca:	10 e0       	ldi	r17, 0x00	; 0
     5cc:	20 e0       	ldi	r18, 0x00	; 0
     5ce:	30 e0       	ldi	r19, 0x00	; 0
     5d0:	0e 94 e5 01 	call	0x3ca	; 0x3ca <WS2801_Set_Delay_Update>
DECREMENT
WS2811_SetGroupColor(GroupAll, Naar_Climax, Ja);
     5d4:	86 e0       	ldi	r24, 0x06	; 6
     5d6:	90 e0       	ldi	r25, 0x00	; 0
     5d8:	4f eb       	ldi	r20, 0xBF	; 191
     5da:	5e eb       	ldi	r21, 0xBE	; 190
     5dc:	6e eb       	ldi	r22, 0xBE	; 190
     5de:	7f ef       	ldi	r23, 0xFF	; 255
     5e0:	21 e0       	ldi	r18, 0x01	; 1
     5e2:	0e 94 55 0e 	call	0x1caa	; 0x1caa <WS2811_SetGroupColor>
WS2801_Set_Delay_Update(Intensity, 801, LS_DELAY_1, Ja); //801
     5e6:	8c 2f       	mov	r24, r28
     5e8:	41 e2       	ldi	r20, 0x21	; 33
     5ea:	53 e0       	ldi	r21, 0x03	; 3
     5ec:	60 e0       	ldi	r22, 0x00	; 0
     5ee:	70 e0       	ldi	r23, 0x00	; 0
     5f0:	0a ef       	ldi	r16, 0xFA	; 250
     5f2:	10 e0       	ldi	r17, 0x00	; 0
     5f4:	20 e0       	ldi	r18, 0x00	; 0
     5f6:	30 e0       	ldi	r19, 0x00	; 0
     5f8:	0e 94 e5 01 	call	0x3ca	; 0x3ca <WS2801_Set_Delay_Update>

DECREMENT
WS2811_SetGroupColor(GroupAll, Naar_Climax, Speciaal);
     5fc:	86 e0       	ldi	r24, 0x06	; 6
     5fe:	90 e0       	ldi	r25, 0x00	; 0
     600:	4f e6       	ldi	r20, 0x6F	; 111
     602:	5e e6       	ldi	r21, 0x6E	; 110
     604:	6e e6       	ldi	r22, 0x6E	; 110
     606:	7f ef       	ldi	r23, 0xFF	; 255
     608:	25 e0       	ldi	r18, 0x05	; 5
     60a:	0e 94 55 0e 	call	0x1caa	; 0x1caa <WS2811_SetGroupColor>
WS2801_Set_Delay_Update(Intensity, 294, LS_DELAY_1, Ja); //294
     60e:	8c 2f       	mov	r24, r28
     610:	46 e2       	ldi	r20, 0x26	; 38
     612:	51 e0       	ldi	r21, 0x01	; 1
     614:	60 e0       	ldi	r22, 0x00	; 0
     616:	70 e0       	ldi	r23, 0x00	; 0
     618:	0a ef       	ldi	r16, 0xFA	; 250
     61a:	10 e0       	ldi	r17, 0x00	; 0
     61c:	20 e0       	ldi	r18, 0x00	; 0
     61e:	30 e0       	ldi	r19, 0x00	; 0
     620:	0e 94 e5 01 	call	0x3ca	; 0x3ca <WS2801_Set_Delay_Update>
DECREMENT
WS2811_SetGroupColor(GroupAll, Naar_Climax, Speciaal);
     624:	86 e0       	ldi	r24, 0x06	; 6
     626:	90 e0       	ldi	r25, 0x00	; 0
     628:	4f e1       	ldi	r20, 0x1F	; 31
     62a:	5e e1       	ldi	r21, 0x1E	; 30
     62c:	6e e1       	ldi	r22, 0x1E	; 30
     62e:	7f ef       	ldi	r23, 0xFF	; 255
     630:	25 e0       	ldi	r18, 0x05	; 5
     632:	0e 94 55 0e 	call	0x1caa	; 0x1caa <WS2811_SetGroupColor>
WS2811_SetGroupColor(GroupAll, Naar_Climax, Ja);
     636:	86 e0       	ldi	r24, 0x06	; 6
     638:	90 e0       	ldi	r25, 0x00	; 0
     63a:	4f e1       	ldi	r20, 0x1F	; 31
     63c:	5e e1       	ldi	r21, 0x1E	; 30
     63e:	6e e1       	ldi	r22, 0x1E	; 30
     640:	7f ef       	ldi	r23, 0xFF	; 255
     642:	21 e0       	ldi	r18, 0x01	; 1
     644:	0e 94 55 0e 	call	0x1caa	; 0x1caa <WS2811_SetGroupColor>
WS2801_Set_Delay_Update(Intensity, 369, LS_DELAY_1, Ja); //369
     648:	8c 2f       	mov	r24, r28
     64a:	41 e7       	ldi	r20, 0x71	; 113
     64c:	51 e0       	ldi	r21, 0x01	; 1
     64e:	60 e0       	ldi	r22, 0x00	; 0
     650:	70 e0       	ldi	r23, 0x00	; 0
     652:	0a ef       	ldi	r16, 0xFA	; 250
     654:	10 e0       	ldi	r17, 0x00	; 0
     656:	20 e0       	ldi	r18, 0x00	; 0
     658:	30 e0       	ldi	r19, 0x00	; 0
     65a:	0e 94 e5 01 	call	0x3ca	; 0x3ca <WS2801_Set_Delay_Update>
DECREMENT
WS2811_SetGroupColor(GroupAll, Naar_Climax, Speciaal);
     65e:	86 e0       	ldi	r24, 0x06	; 6
     660:	90 e0       	ldi	r25, 0x00	; 0
     662:	4f ec       	ldi	r20, 0xCF	; 207
     664:	5d ec       	ldi	r21, 0xCD	; 205
     666:	6d ec       	ldi	r22, 0xCD	; 205
     668:	7e ef       	ldi	r23, 0xFE	; 254
     66a:	25 e0       	ldi	r18, 0x05	; 5
     66c:	0e 94 55 0e 	call	0x1caa	; 0x1caa <WS2811_SetGroupColor>
WS2801_Set_Delay_Update(Intensity, 399, LS_DELAY_1, Ja); //399
     670:	8c 2f       	mov	r24, r28
     672:	4f e8       	ldi	r20, 0x8F	; 143
     674:	51 e0       	ldi	r21, 0x01	; 1
     676:	60 e0       	ldi	r22, 0x00	; 0
     678:	70 e0       	ldi	r23, 0x00	; 0
     67a:	0a ef       	ldi	r16, 0xFA	; 250
     67c:	10 e0       	ldi	r17, 0x00	; 0
     67e:	20 e0       	ldi	r18, 0x00	; 0
     680:	30 e0       	ldi	r19, 0x00	; 0
     682:	0e 94 e5 01 	call	0x3ca	; 0x3ca <WS2801_Set_Delay_Update>
DECREMENT
WS2811_SetGroupColor(GroupAll, Naar_Climax, Speciaal);
     686:	86 e0       	ldi	r24, 0x06	; 6
     688:	90 e0       	ldi	r25, 0x00	; 0
     68a:	4f e7       	ldi	r20, 0x7F	; 127
     68c:	5d e7       	ldi	r21, 0x7D	; 125
     68e:	6d e7       	ldi	r22, 0x7D	; 125
     690:	7e ef       	ldi	r23, 0xFE	; 254
     692:	25 e0       	ldi	r18, 0x05	; 5
     694:	0e 94 55 0e 	call	0x1caa	; 0x1caa <WS2811_SetGroupColor>
WS2801_Set_Delay_Update(Intensity, 258, LS_DELAY_1, Ja); //258
     698:	8c 2f       	mov	r24, r28
     69a:	42 e0       	ldi	r20, 0x02	; 2
     69c:	51 e0       	ldi	r21, 0x01	; 1
     69e:	60 e0       	ldi	r22, 0x00	; 0
     6a0:	70 e0       	ldi	r23, 0x00	; 0
     6a2:	0a ef       	ldi	r16, 0xFA	; 250
     6a4:	10 e0       	ldi	r17, 0x00	; 0
     6a6:	20 e0       	ldi	r18, 0x00	; 0
     6a8:	30 e0       	ldi	r19, 0x00	; 0
     6aa:	0e 94 e5 01 	call	0x3ca	; 0x3ca <WS2801_Set_Delay_Update>
WS2811_SetGroupColor(GroupAll, COLOR_UIT, Neen);
     6ae:	86 e0       	ldi	r24, 0x06	; 6
     6b0:	90 e0       	ldi	r25, 0x00	; 0
     6b2:	40 e0       	ldi	r20, 0x00	; 0
     6b4:	50 e0       	ldi	r21, 0x00	; 0
     6b6:	ba 01       	movw	r22, r20
     6b8:	22 e0       	ldi	r18, 0x02	; 2
     6ba:	0e 94 55 0e 	call	0x1caa	; 0x1caa <WS2811_SetGroupColor>
WS2801_Set_Delay_Update(Intensity, 1141, LS_DELAY_1, Ja); //1141
     6be:	8c 2f       	mov	r24, r28
     6c0:	45 e7       	ldi	r20, 0x75	; 117
     6c2:	54 e0       	ldi	r21, 0x04	; 4
     6c4:	60 e0       	ldi	r22, 0x00	; 0
     6c6:	70 e0       	ldi	r23, 0x00	; 0
     6c8:	0a ef       	ldi	r16, 0xFA	; 250
     6ca:	10 e0       	ldi	r17, 0x00	; 0
     6cc:	20 e0       	ldi	r18, 0x00	; 0
     6ce:	30 e0       	ldi	r19, 0x00	; 0
     6d0:	0e 94 e5 01 	call	0x3ca	; 0x3ca <WS2801_Set_Delay_Update>
     6d4:	cf 91       	pop	r28
     6d6:	1f 91       	pop	r17
     6d8:	0f 91       	pop	r16
     6da:	ef 90       	pop	r14
     6dc:	08 95       	ret

000006de <DEEL1>:


		
}

void DEEL1(Intensity){
     6de:	ef 92       	push	r14
     6e0:	0f 93       	push	r16
     6e2:	1f 93       	push	r17
     6e4:	cf 93       	push	r28
     6e6:	c8 2f       	mov	r28, r24
	
	WS2801_Set_Delay_Update(Intensity, 419, LS_DELAY_1, Ja); //419
     6e8:	43 ea       	ldi	r20, 0xA3	; 163
     6ea:	51 e0       	ldi	r21, 0x01	; 1
     6ec:	60 e0       	ldi	r22, 0x00	; 0
     6ee:	70 e0       	ldi	r23, 0x00	; 0
     6f0:	0a ef       	ldi	r16, 0xFA	; 250
     6f2:	10 e0       	ldi	r17, 0x00	; 0
     6f4:	20 e0       	ldi	r18, 0x00	; 0
     6f6:	30 e0       	ldi	r19, 0x00	; 0
     6f8:	ee 24       	eor	r14, r14
     6fa:	e3 94       	inc	r14
     6fc:	0e 94 e5 01 	call	0x3ca	; 0x3ca <WS2801_Set_Delay_Update>
	WS2801_Set_Delay_Update(Intensity, 396, LS_DELAY_1, Ja); //396
     700:	8c 2f       	mov	r24, r28
     702:	4c e8       	ldi	r20, 0x8C	; 140
     704:	51 e0       	ldi	r21, 0x01	; 1
     706:	60 e0       	ldi	r22, 0x00	; 0
     708:	70 e0       	ldi	r23, 0x00	; 0
     70a:	0a ef       	ldi	r16, 0xFA	; 250
     70c:	10 e0       	ldi	r17, 0x00	; 0
     70e:	20 e0       	ldi	r18, 0x00	; 0
     710:	30 e0       	ldi	r19, 0x00	; 0
     712:	0e 94 e5 01 	call	0x3ca	; 0x3ca <WS2801_Set_Delay_Update>
	WS2801_Set_Delay_Update(Intensity, 281, LS_DELAY_1, Ja); //281
     716:	8c 2f       	mov	r24, r28
     718:	49 e1       	ldi	r20, 0x19	; 25
     71a:	51 e0       	ldi	r21, 0x01	; 1
     71c:	60 e0       	ldi	r22, 0x00	; 0
     71e:	70 e0       	ldi	r23, 0x00	; 0
     720:	0a ef       	ldi	r16, 0xFA	; 250
     722:	10 e0       	ldi	r17, 0x00	; 0
     724:	20 e0       	ldi	r18, 0x00	; 0
     726:	30 e0       	ldi	r19, 0x00	; 0
     728:	0e 94 e5 01 	call	0x3ca	; 0x3ca <WS2801_Set_Delay_Update>
	WS2801_Set_Delay_Update(Intensity, 796, LS_DELAY_1, Ja); //796
     72c:	8c 2f       	mov	r24, r28
     72e:	4c e1       	ldi	r20, 0x1C	; 28
     730:	53 e0       	ldi	r21, 0x03	; 3
     732:	60 e0       	ldi	r22, 0x00	; 0
     734:	70 e0       	ldi	r23, 0x00	; 0
     736:	0a ef       	ldi	r16, 0xFA	; 250
     738:	10 e0       	ldi	r17, 0x00	; 0
     73a:	20 e0       	ldi	r18, 0x00	; 0
     73c:	30 e0       	ldi	r19, 0x00	; 0
     73e:	0e 94 e5 01 	call	0x3ca	; 0x3ca <WS2801_Set_Delay_Update>
	WS2801_Set_Delay_Update(Intensity, 276, LS_DELAY_1, Ja); //276
     742:	8c 2f       	mov	r24, r28
     744:	44 e1       	ldi	r20, 0x14	; 20
     746:	51 e0       	ldi	r21, 0x01	; 1
     748:	60 e0       	ldi	r22, 0x00	; 0
     74a:	70 e0       	ldi	r23, 0x00	; 0
     74c:	0a ef       	ldi	r16, 0xFA	; 250
     74e:	10 e0       	ldi	r17, 0x00	; 0
     750:	20 e0       	ldi	r18, 0x00	; 0
     752:	30 e0       	ldi	r19, 0x00	; 0
     754:	0e 94 e5 01 	call	0x3ca	; 0x3ca <WS2801_Set_Delay_Update>
	WS2801_Set_Delay_Update(Intensity, 437, LS_DELAY_1, Ja); //437
     758:	8c 2f       	mov	r24, r28
     75a:	45 eb       	ldi	r20, 0xB5	; 181
     75c:	51 e0       	ldi	r21, 0x01	; 1
     75e:	60 e0       	ldi	r22, 0x00	; 0
     760:	70 e0       	ldi	r23, 0x00	; 0
     762:	0a ef       	ldi	r16, 0xFA	; 250
     764:	10 e0       	ldi	r17, 0x00	; 0
     766:	20 e0       	ldi	r18, 0x00	; 0
     768:	30 e0       	ldi	r19, 0x00	; 0
     76a:	0e 94 e5 01 	call	0x3ca	; 0x3ca <WS2801_Set_Delay_Update>
	WS2801_Set_Delay_Update(Intensity, 373, LS_DELAY_1, Ja); //373
     76e:	8c 2f       	mov	r24, r28
     770:	45 e7       	ldi	r20, 0x75	; 117
     772:	51 e0       	ldi	r21, 0x01	; 1
     774:	60 e0       	ldi	r22, 0x00	; 0
     776:	70 e0       	ldi	r23, 0x00	; 0
     778:	0a ef       	ldi	r16, 0xFA	; 250
     77a:	10 e0       	ldi	r17, 0x00	; 0
     77c:	20 e0       	ldi	r18, 0x00	; 0
     77e:	30 e0       	ldi	r19, 0x00	; 0
     780:	0e 94 e5 01 	call	0x3ca	; 0x3ca <WS2801_Set_Delay_Update>
	WS2801_Set_Delay_Update(Intensity, 299, LS_DELAY_1, Ja); //299
     784:	8c 2f       	mov	r24, r28
     786:	4b e2       	ldi	r20, 0x2B	; 43
     788:	51 e0       	ldi	r21, 0x01	; 1
     78a:	60 e0       	ldi	r22, 0x00	; 0
     78c:	70 e0       	ldi	r23, 0x00	; 0
     78e:	0a ef       	ldi	r16, 0xFA	; 250
     790:	10 e0       	ldi	r17, 0x00	; 0
     792:	20 e0       	ldi	r18, 0x00	; 0
     794:	30 e0       	ldi	r19, 0x00	; 0
     796:	0e 94 e5 01 	call	0x3ca	; 0x3ca <WS2801_Set_Delay_Update>
	WS2801_Set_Delay_Update(Intensity, 1054, LS_DELAY_1, Ja); //1054
     79a:	8c 2f       	mov	r24, r28
     79c:	4e e1       	ldi	r20, 0x1E	; 30
     79e:	54 e0       	ldi	r21, 0x04	; 4
     7a0:	60 e0       	ldi	r22, 0x00	; 0
     7a2:	70 e0       	ldi	r23, 0x00	; 0
     7a4:	0a ef       	ldi	r16, 0xFA	; 250
     7a6:	10 e0       	ldi	r17, 0x00	; 0
     7a8:	20 e0       	ldi	r18, 0x00	; 0
     7aa:	30 e0       	ldi	r19, 0x00	; 0
     7ac:	0e 94 e5 01 	call	0x3ca	; 0x3ca <WS2801_Set_Delay_Update>
	WS2801_Set_Delay_Update(Intensity, 419, LS_DELAY_1, Ja); //419
     7b0:	8c 2f       	mov	r24, r28
     7b2:	43 ea       	ldi	r20, 0xA3	; 163
     7b4:	51 e0       	ldi	r21, 0x01	; 1
     7b6:	60 e0       	ldi	r22, 0x00	; 0
     7b8:	70 e0       	ldi	r23, 0x00	; 0
     7ba:	0a ef       	ldi	r16, 0xFA	; 250
     7bc:	10 e0       	ldi	r17, 0x00	; 0
     7be:	20 e0       	ldi	r18, 0x00	; 0
     7c0:	30 e0       	ldi	r19, 0x00	; 0
     7c2:	0e 94 e5 01 	call	0x3ca	; 0x3ca <WS2801_Set_Delay_Update>
	WS2801_Set_Delay_Update(Intensity, 386, LS_DELAY_1, Ja); //386
     7c6:	8c 2f       	mov	r24, r28
     7c8:	42 e8       	ldi	r20, 0x82	; 130
     7ca:	51 e0       	ldi	r21, 0x01	; 1
     7cc:	60 e0       	ldi	r22, 0x00	; 0
     7ce:	70 e0       	ldi	r23, 0x00	; 0
     7d0:	0a ef       	ldi	r16, 0xFA	; 250
     7d2:	10 e0       	ldi	r17, 0x00	; 0
     7d4:	20 e0       	ldi	r18, 0x00	; 0
     7d6:	30 e0       	ldi	r19, 0x00	; 0
     7d8:	0e 94 e5 01 	call	0x3ca	; 0x3ca <WS2801_Set_Delay_Update>
	WS2801_Set_Delay_Update(Intensity, 308, LS_DELAY_1, Ja); //308
     7dc:	8c 2f       	mov	r24, r28
     7de:	44 e3       	ldi	r20, 0x34	; 52
     7e0:	51 e0       	ldi	r21, 0x01	; 1
     7e2:	60 e0       	ldi	r22, 0x00	; 0
     7e4:	70 e0       	ldi	r23, 0x00	; 0
     7e6:	0a ef       	ldi	r16, 0xFA	; 250
     7e8:	10 e0       	ldi	r17, 0x00	; 0
     7ea:	20 e0       	ldi	r18, 0x00	; 0
     7ec:	30 e0       	ldi	r19, 0x00	; 0
     7ee:	0e 94 e5 01 	call	0x3ca	; 0x3ca <WS2801_Set_Delay_Update>
	WS2801_Set_Delay_Update(Intensity, 782, LS_DELAY_1, Ja); //782
     7f2:	8c 2f       	mov	r24, r28
     7f4:	4e e0       	ldi	r20, 0x0E	; 14
     7f6:	53 e0       	ldi	r21, 0x03	; 3
     7f8:	60 e0       	ldi	r22, 0x00	; 0
     7fa:	70 e0       	ldi	r23, 0x00	; 0
     7fc:	0a ef       	ldi	r16, 0xFA	; 250
     7fe:	10 e0       	ldi	r17, 0x00	; 0
     800:	20 e0       	ldi	r18, 0x00	; 0
     802:	30 e0       	ldi	r19, 0x00	; 0
     804:	0e 94 e5 01 	call	0x3ca	; 0x3ca <WS2801_Set_Delay_Update>
	WS2801_Set_Delay_Update(Intensity, 308, LS_DELAY_1, Ja); //308
     808:	8c 2f       	mov	r24, r28
     80a:	44 e3       	ldi	r20, 0x34	; 52
     80c:	51 e0       	ldi	r21, 0x01	; 1
     80e:	60 e0       	ldi	r22, 0x00	; 0
     810:	70 e0       	ldi	r23, 0x00	; 0
     812:	0a ef       	ldi	r16, 0xFA	; 250
     814:	10 e0       	ldi	r17, 0x00	; 0
     816:	20 e0       	ldi	r18, 0x00	; 0
     818:	30 e0       	ldi	r19, 0x00	; 0
     81a:	0e 94 e5 01 	call	0x3ca	; 0x3ca <WS2801_Set_Delay_Update>
	WS2801_Set_Delay_Update(Intensity, 409, LS_DELAY_1, Ja); //409
     81e:	8c 2f       	mov	r24, r28
     820:	49 e9       	ldi	r20, 0x99	; 153
     822:	51 e0       	ldi	r21, 0x01	; 1
     824:	60 e0       	ldi	r22, 0x00	; 0
     826:	70 e0       	ldi	r23, 0x00	; 0
     828:	0a ef       	ldi	r16, 0xFA	; 250
     82a:	10 e0       	ldi	r17, 0x00	; 0
     82c:	20 e0       	ldi	r18, 0x00	; 0
     82e:	30 e0       	ldi	r19, 0x00	; 0
     830:	0e 94 e5 01 	call	0x3ca	; 0x3ca <WS2801_Set_Delay_Update>
	WS2801_Set_Delay_Update(Intensity, 382, LS_DELAY_1, Ja); //382
     834:	8c 2f       	mov	r24, r28
     836:	4e e7       	ldi	r20, 0x7E	; 126
     838:	51 e0       	ldi	r21, 0x01	; 1
     83a:	60 e0       	ldi	r22, 0x00	; 0
     83c:	70 e0       	ldi	r23, 0x00	; 0
     83e:	0a ef       	ldi	r16, 0xFA	; 250
     840:	10 e0       	ldi	r17, 0x00	; 0
     842:	20 e0       	ldi	r18, 0x00	; 0
     844:	30 e0       	ldi	r19, 0x00	; 0
     846:	0e 94 e5 01 	call	0x3ca	; 0x3ca <WS2801_Set_Delay_Update>
	WS2801_Set_Delay_Update(Intensity, 1366, LS_DELAY_1, Ja); //1366
     84a:	8c 2f       	mov	r24, r28
     84c:	46 e5       	ldi	r20, 0x56	; 86
     84e:	55 e0       	ldi	r21, 0x05	; 5
     850:	60 e0       	ldi	r22, 0x00	; 0
     852:	70 e0       	ldi	r23, 0x00	; 0
     854:	0a ef       	ldi	r16, 0xFA	; 250
     856:	10 e0       	ldi	r17, 0x00	; 0
     858:	20 e0       	ldi	r18, 0x00	; 0
     85a:	30 e0       	ldi	r19, 0x00	; 0
     85c:	0e 94 e5 01 	call	0x3ca	; 0x3ca <WS2801_Set_Delay_Update>
}
     860:	cf 91       	pop	r28
     862:	1f 91       	pop	r17
     864:	0f 91       	pop	r16
     866:	ef 90       	pop	r14
     868:	08 95       	ret

0000086a <DEEL2>:

void DEEL2(Intensity){
     86a:	ef 92       	push	r14
     86c:	0f 93       	push	r16
     86e:	1f 93       	push	r17
     870:	cf 93       	push	r28
     872:	c8 2f       	mov	r28, r24
WS2811_SetGroupColor(Group2, COLOR_PAARS, Ja);
     874:	82 e0       	ldi	r24, 0x02	; 2
     876:	90 e0       	ldi	r25, 0x00	; 0
     878:	4f ef       	ldi	r20, 0xFF	; 255
     87a:	5f e5       	ldi	r21, 0x5F	; 95
     87c:	6f eb       	ldi	r22, 0xBF	; 191
     87e:	70 e0       	ldi	r23, 0x00	; 0
     880:	21 e0       	ldi	r18, 0x01	; 1
     882:	0e 94 55 0e 	call	0x1caa	; 0x1caa <WS2811_SetGroupColor>
WS2811_SetGroupColor(Group3, COLOR_PAARS, Ja);
     886:	83 e0       	ldi	r24, 0x03	; 3
     888:	90 e0       	ldi	r25, 0x00	; 0
     88a:	4f ef       	ldi	r20, 0xFF	; 255
     88c:	5f e5       	ldi	r21, 0x5F	; 95
     88e:	6f eb       	ldi	r22, 0xBF	; 191
     890:	70 e0       	ldi	r23, 0x00	; 0
     892:	21 e0       	ldi	r18, 0x01	; 1
     894:	0e 94 55 0e 	call	0x1caa	; 0x1caa <WS2811_SetGroupColor>
WS2801_Set_Delay_Update(Intensity, 391, LS_DELAY_1, Ja); //391
     898:	8c 2f       	mov	r24, r28
     89a:	47 e8       	ldi	r20, 0x87	; 135
     89c:	51 e0       	ldi	r21, 0x01	; 1
     89e:	60 e0       	ldi	r22, 0x00	; 0
     8a0:	70 e0       	ldi	r23, 0x00	; 0
     8a2:	0a ef       	ldi	r16, 0xFA	; 250
     8a4:	10 e0       	ldi	r17, 0x00	; 0
     8a6:	20 e0       	ldi	r18, 0x00	; 0
     8a8:	30 e0       	ldi	r19, 0x00	; 0
     8aa:	ee 24       	eor	r14, r14
     8ac:	e3 94       	inc	r14
     8ae:	0e 94 e5 01 	call	0x3ca	; 0x3ca <WS2801_Set_Delay_Update>
WS2811_SetGroupColor(Group2, COLOR_PAARS, Speciaal);
     8b2:	82 e0       	ldi	r24, 0x02	; 2
     8b4:	90 e0       	ldi	r25, 0x00	; 0
     8b6:	4f ef       	ldi	r20, 0xFF	; 255
     8b8:	5f e5       	ldi	r21, 0x5F	; 95
     8ba:	6f eb       	ldi	r22, 0xBF	; 191
     8bc:	70 e0       	ldi	r23, 0x00	; 0
     8be:	25 e0       	ldi	r18, 0x05	; 5
     8c0:	0e 94 55 0e 	call	0x1caa	; 0x1caa <WS2811_SetGroupColor>
WS2811_SetGroupColor(Group3, COLOR_PAARS, Speciaal);
     8c4:	83 e0       	ldi	r24, 0x03	; 3
     8c6:	90 e0       	ldi	r25, 0x00	; 0
     8c8:	4f ef       	ldi	r20, 0xFF	; 255
     8ca:	5f e5       	ldi	r21, 0x5F	; 95
     8cc:	6f eb       	ldi	r22, 0xBF	; 191
     8ce:	70 e0       	ldi	r23, 0x00	; 0
     8d0:	25 e0       	ldi	r18, 0x05	; 5
     8d2:	0e 94 55 0e 	call	0x1caa	; 0x1caa <WS2811_SetGroupColor>
WS2801_Set_Delay_Update(Intensity, 396, LS_DELAY_1, Ja); //396
     8d6:	8c 2f       	mov	r24, r28
     8d8:	4c e8       	ldi	r20, 0x8C	; 140
     8da:	51 e0       	ldi	r21, 0x01	; 1
     8dc:	60 e0       	ldi	r22, 0x00	; 0
     8de:	70 e0       	ldi	r23, 0x00	; 0
     8e0:	0a ef       	ldi	r16, 0xFA	; 250
     8e2:	10 e0       	ldi	r17, 0x00	; 0
     8e4:	20 e0       	ldi	r18, 0x00	; 0
     8e6:	30 e0       	ldi	r19, 0x00	; 0
     8e8:	0e 94 e5 01 	call	0x3ca	; 0x3ca <WS2801_Set_Delay_Update>
WS2811_SetGroupColor(Group2, COLOR_UIT, Ja);
     8ec:	82 e0       	ldi	r24, 0x02	; 2
     8ee:	90 e0       	ldi	r25, 0x00	; 0
     8f0:	40 e0       	ldi	r20, 0x00	; 0
     8f2:	50 e0       	ldi	r21, 0x00	; 0
     8f4:	ba 01       	movw	r22, r20
     8f6:	21 e0       	ldi	r18, 0x01	; 1
     8f8:	0e 94 55 0e 	call	0x1caa	; 0x1caa <WS2811_SetGroupColor>
WS2811_SetGroupColor(Group3, COLOR_UIT, Ja);
     8fc:	83 e0       	ldi	r24, 0x03	; 3
     8fe:	90 e0       	ldi	r25, 0x00	; 0
     900:	40 e0       	ldi	r20, 0x00	; 0
     902:	50 e0       	ldi	r21, 0x00	; 0
     904:	ba 01       	movw	r22, r20
     906:	21 e0       	ldi	r18, 0x01	; 1
     908:	0e 94 55 0e 	call	0x1caa	; 0x1caa <WS2811_SetGroupColor>
WS2811_SetGroupColor(Group1, COLOR_LIGHT_PURPLE, Speciaal);
     90c:	81 e0       	ldi	r24, 0x01	; 1
     90e:	90 e0       	ldi	r25, 0x00	; 0
     910:	4f ed       	ldi	r20, 0xDF	; 223
     912:	50 ed       	ldi	r21, 0xD0	; 208
     914:	68 ee       	ldi	r22, 0xE8	; 232
     916:	70 e0       	ldi	r23, 0x00	; 0
     918:	25 e0       	ldi	r18, 0x05	; 5
     91a:	0e 94 55 0e 	call	0x1caa	; 0x1caa <WS2811_SetGroupColor>
WS2811_SetGroupColor(Group4, COLOR_LIGHT_PURPLE, Speciaal);
     91e:	84 e0       	ldi	r24, 0x04	; 4
     920:	90 e0       	ldi	r25, 0x00	; 0
     922:	4f ed       	ldi	r20, 0xDF	; 223
     924:	50 ed       	ldi	r21, 0xD0	; 208
     926:	68 ee       	ldi	r22, 0xE8	; 232
     928:	70 e0       	ldi	r23, 0x00	; 0
     92a:	25 e0       	ldi	r18, 0x05	; 5
     92c:	0e 94 55 0e 	call	0x1caa	; 0x1caa <WS2811_SetGroupColor>
WS2801_Set_Delay_Update(Intensity, 290, LS_DELAY_1, Ja); //290
     930:	8c 2f       	mov	r24, r28
     932:	42 e2       	ldi	r20, 0x22	; 34
     934:	51 e0       	ldi	r21, 0x01	; 1
     936:	60 e0       	ldi	r22, 0x00	; 0
     938:	70 e0       	ldi	r23, 0x00	; 0
     93a:	0a ef       	ldi	r16, 0xFA	; 250
     93c:	10 e0       	ldi	r17, 0x00	; 0
     93e:	20 e0       	ldi	r18, 0x00	; 0
     940:	30 e0       	ldi	r19, 0x00	; 0
     942:	0e 94 e5 01 	call	0x3ca	; 0x3ca <WS2801_Set_Delay_Update>
WS2811_SetGroupColor(GroupAll, COLOR_UIT, Neen);
     946:	86 e0       	ldi	r24, 0x06	; 6
     948:	90 e0       	ldi	r25, 0x00	; 0
     94a:	40 e0       	ldi	r20, 0x00	; 0
     94c:	50 e0       	ldi	r21, 0x00	; 0
     94e:	ba 01       	movw	r22, r20
     950:	22 e0       	ldi	r18, 0x02	; 2
     952:	0e 94 55 0e 	call	0x1caa	; 0x1caa <WS2811_SetGroupColor>
WS2801_Set_Delay_Update(Intensity, 801, LS_DELAY_1, Ja); //801
     956:	8c 2f       	mov	r24, r28
     958:	41 e2       	ldi	r20, 0x21	; 33
     95a:	53 e0       	ldi	r21, 0x03	; 3
     95c:	60 e0       	ldi	r22, 0x00	; 0
     95e:	70 e0       	ldi	r23, 0x00	; 0
     960:	0a ef       	ldi	r16, 0xFA	; 250
     962:	10 e0       	ldi	r17, 0x00	; 0
     964:	20 e0       	ldi	r18, 0x00	; 0
     966:	30 e0       	ldi	r19, 0x00	; 0
     968:	0e 94 e5 01 	call	0x3ca	; 0x3ca <WS2801_Set_Delay_Update>

WS2811_SetGroupColor(Group2, COLOR_PAARS, Ja);
     96c:	82 e0       	ldi	r24, 0x02	; 2
     96e:	90 e0       	ldi	r25, 0x00	; 0
     970:	4f ef       	ldi	r20, 0xFF	; 255
     972:	5f e5       	ldi	r21, 0x5F	; 95
     974:	6f eb       	ldi	r22, 0xBF	; 191
     976:	70 e0       	ldi	r23, 0x00	; 0
     978:	21 e0       	ldi	r18, 0x01	; 1
     97a:	0e 94 55 0e 	call	0x1caa	; 0x1caa <WS2811_SetGroupColor>
WS2811_SetGroupColor(Group3, COLOR_PAARS, Ja);
     97e:	83 e0       	ldi	r24, 0x03	; 3
     980:	90 e0       	ldi	r25, 0x00	; 0
     982:	4f ef       	ldi	r20, 0xFF	; 255
     984:	5f e5       	ldi	r21, 0x5F	; 95
     986:	6f eb       	ldi	r22, 0xBF	; 191
     988:	70 e0       	ldi	r23, 0x00	; 0
     98a:	21 e0       	ldi	r18, 0x01	; 1
     98c:	0e 94 55 0e 	call	0x1caa	; 0x1caa <WS2811_SetGroupColor>
WS2801_Set_Delay_Update(Intensity, 340, LS_DELAY_1, Ja); //340
     990:	8c 2f       	mov	r24, r28
     992:	44 e5       	ldi	r20, 0x54	; 84
     994:	51 e0       	ldi	r21, 0x01	; 1
     996:	60 e0       	ldi	r22, 0x00	; 0
     998:	70 e0       	ldi	r23, 0x00	; 0
     99a:	0a ef       	ldi	r16, 0xFA	; 250
     99c:	10 e0       	ldi	r17, 0x00	; 0
     99e:	20 e0       	ldi	r18, 0x00	; 0
     9a0:	30 e0       	ldi	r19, 0x00	; 0
     9a2:	0e 94 e5 01 	call	0x3ca	; 0x3ca <WS2801_Set_Delay_Update>
WS2811_SetGroupColor(Group2, COLOR_PAARS, Speciaal);
     9a6:	82 e0       	ldi	r24, 0x02	; 2
     9a8:	90 e0       	ldi	r25, 0x00	; 0
     9aa:	4f ef       	ldi	r20, 0xFF	; 255
     9ac:	5f e5       	ldi	r21, 0x5F	; 95
     9ae:	6f eb       	ldi	r22, 0xBF	; 191
     9b0:	70 e0       	ldi	r23, 0x00	; 0
     9b2:	25 e0       	ldi	r18, 0x05	; 5
     9b4:	0e 94 55 0e 	call	0x1caa	; 0x1caa <WS2811_SetGroupColor>
WS2811_SetGroupColor(Group3, COLOR_PAARS, Speciaal);
     9b8:	83 e0       	ldi	r24, 0x03	; 3
     9ba:	90 e0       	ldi	r25, 0x00	; 0
     9bc:	4f ef       	ldi	r20, 0xFF	; 255
     9be:	5f e5       	ldi	r21, 0x5F	; 95
     9c0:	6f eb       	ldi	r22, 0xBF	; 191
     9c2:	70 e0       	ldi	r23, 0x00	; 0
     9c4:	25 e0       	ldi	r18, 0x05	; 5
     9c6:	0e 94 55 0e 	call	0x1caa	; 0x1caa <WS2811_SetGroupColor>
WS2801_Set_Delay_Update(Intensity, 373, LS_DELAY_1, Ja); //373
     9ca:	8c 2f       	mov	r24, r28
     9cc:	45 e7       	ldi	r20, 0x75	; 117
     9ce:	51 e0       	ldi	r21, 0x01	; 1
     9d0:	60 e0       	ldi	r22, 0x00	; 0
     9d2:	70 e0       	ldi	r23, 0x00	; 0
     9d4:	0a ef       	ldi	r16, 0xFA	; 250
     9d6:	10 e0       	ldi	r17, 0x00	; 0
     9d8:	20 e0       	ldi	r18, 0x00	; 0
     9da:	30 e0       	ldi	r19, 0x00	; 0
     9dc:	0e 94 e5 01 	call	0x3ca	; 0x3ca <WS2801_Set_Delay_Update>
WS2811_SetGroupColor(Group2, COLOR_UIT, Ja);
     9e0:	82 e0       	ldi	r24, 0x02	; 2
     9e2:	90 e0       	ldi	r25, 0x00	; 0
     9e4:	40 e0       	ldi	r20, 0x00	; 0
     9e6:	50 e0       	ldi	r21, 0x00	; 0
     9e8:	ba 01       	movw	r22, r20
     9ea:	21 e0       	ldi	r18, 0x01	; 1
     9ec:	0e 94 55 0e 	call	0x1caa	; 0x1caa <WS2811_SetGroupColor>
WS2811_SetGroupColor(Group3, COLOR_UIT, Ja);
     9f0:	83 e0       	ldi	r24, 0x03	; 3
     9f2:	90 e0       	ldi	r25, 0x00	; 0
     9f4:	40 e0       	ldi	r20, 0x00	; 0
     9f6:	50 e0       	ldi	r21, 0x00	; 0
     9f8:	ba 01       	movw	r22, r20
     9fa:	21 e0       	ldi	r18, 0x01	; 1
     9fc:	0e 94 55 0e 	call	0x1caa	; 0x1caa <WS2811_SetGroupColor>
WS2811_SetGroupColor(Group1, COLOR_LIGHT_PURPLE, Speciaal);
     a00:	81 e0       	ldi	r24, 0x01	; 1
     a02:	90 e0       	ldi	r25, 0x00	; 0
     a04:	4f ed       	ldi	r20, 0xDF	; 223
     a06:	50 ed       	ldi	r21, 0xD0	; 208
     a08:	68 ee       	ldi	r22, 0xE8	; 232
     a0a:	70 e0       	ldi	r23, 0x00	; 0
     a0c:	25 e0       	ldi	r18, 0x05	; 5
     a0e:	0e 94 55 0e 	call	0x1caa	; 0x1caa <WS2811_SetGroupColor>
WS2811_SetGroupColor(Group4, COLOR_LIGHT_PURPLE, Speciaal);
     a12:	84 e0       	ldi	r24, 0x04	; 4
     a14:	90 e0       	ldi	r25, 0x00	; 0
     a16:	4f ed       	ldi	r20, 0xDF	; 223
     a18:	50 ed       	ldi	r21, 0xD0	; 208
     a1a:	68 ee       	ldi	r22, 0xE8	; 232
     a1c:	70 e0       	ldi	r23, 0x00	; 0
     a1e:	25 e0       	ldi	r18, 0x05	; 5
     a20:	0e 94 55 0e 	call	0x1caa	; 0x1caa <WS2811_SetGroupColor>
WS2801_Set_Delay_Update(Intensity, 373, LS_DELAY_1, Ja); //373
     a24:	8c 2f       	mov	r24, r28
     a26:	45 e7       	ldi	r20, 0x75	; 117
     a28:	51 e0       	ldi	r21, 0x01	; 1
     a2a:	60 e0       	ldi	r22, 0x00	; 0
     a2c:	70 e0       	ldi	r23, 0x00	; 0
     a2e:	0a ef       	ldi	r16, 0xFA	; 250
     a30:	10 e0       	ldi	r17, 0x00	; 0
     a32:	20 e0       	ldi	r18, 0x00	; 0
     a34:	30 e0       	ldi	r19, 0x00	; 0
     a36:	0e 94 e5 01 	call	0x3ca	; 0x3ca <WS2801_Set_Delay_Update>
WS2811_SetGroupColor(Group1, COLOR_LIGHT_PURPLE, Ja);
     a3a:	81 e0       	ldi	r24, 0x01	; 1
     a3c:	90 e0       	ldi	r25, 0x00	; 0
     a3e:	4f ed       	ldi	r20, 0xDF	; 223
     a40:	50 ed       	ldi	r21, 0xD0	; 208
     a42:	68 ee       	ldi	r22, 0xE8	; 232
     a44:	70 e0       	ldi	r23, 0x00	; 0
     a46:	21 e0       	ldi	r18, 0x01	; 1
     a48:	0e 94 55 0e 	call	0x1caa	; 0x1caa <WS2811_SetGroupColor>
WS2811_SetGroupColor(Group4, COLOR_LIGHT_PURPLE, Ja);
     a4c:	84 e0       	ldi	r24, 0x04	; 4
     a4e:	90 e0       	ldi	r25, 0x00	; 0
     a50:	4f ed       	ldi	r20, 0xDF	; 223
     a52:	50 ed       	ldi	r21, 0xD0	; 208
     a54:	68 ee       	ldi	r22, 0xE8	; 232
     a56:	70 e0       	ldi	r23, 0x00	; 0
     a58:	21 e0       	ldi	r18, 0x01	; 1
     a5a:	0e 94 55 0e 	call	0x1caa	; 0x1caa <WS2811_SetGroupColor>
WS2801_Set_Delay_Update(Intensity, 299, LS_DELAY_1, Ja); //299
     a5e:	8c 2f       	mov	r24, r28
     a60:	4b e2       	ldi	r20, 0x2B	; 43
     a62:	51 e0       	ldi	r21, 0x01	; 1
     a64:	60 e0       	ldi	r22, 0x00	; 0
     a66:	70 e0       	ldi	r23, 0x00	; 0
     a68:	0a ef       	ldi	r16, 0xFA	; 250
     a6a:	10 e0       	ldi	r17, 0x00	; 0
     a6c:	20 e0       	ldi	r18, 0x00	; 0
     a6e:	30 e0       	ldi	r19, 0x00	; 0
     a70:	0e 94 e5 01 	call	0x3ca	; 0x3ca <WS2801_Set_Delay_Update>
WS2811_SetGroupColor(GroupAll, COLOR_UIT, Neen);
     a74:	86 e0       	ldi	r24, 0x06	; 6
     a76:	90 e0       	ldi	r25, 0x00	; 0
     a78:	40 e0       	ldi	r20, 0x00	; 0
     a7a:	50 e0       	ldi	r21, 0x00	; 0
     a7c:	ba 01       	movw	r22, r20
     a7e:	22 e0       	ldi	r18, 0x02	; 2
     a80:	0e 94 55 0e 	call	0x1caa	; 0x1caa <WS2811_SetGroupColor>
WS2801_Set_Delay_Update(Intensity, 1132, LS_DELAY_1, Ja); //1132
     a84:	8c 2f       	mov	r24, r28
     a86:	4c e6       	ldi	r20, 0x6C	; 108
     a88:	54 e0       	ldi	r21, 0x04	; 4
     a8a:	60 e0       	ldi	r22, 0x00	; 0
     a8c:	70 e0       	ldi	r23, 0x00	; 0
     a8e:	0a ef       	ldi	r16, 0xFA	; 250
     a90:	10 e0       	ldi	r17, 0x00	; 0
     a92:	20 e0       	ldi	r18, 0x00	; 0
     a94:	30 e0       	ldi	r19, 0x00	; 0
     a96:	0e 94 e5 01 	call	0x3ca	; 0x3ca <WS2801_Set_Delay_Update>

WS2811_SetGroupColor(Group2, COLOR_PAARS, Ja);
     a9a:	82 e0       	ldi	r24, 0x02	; 2
     a9c:	90 e0       	ldi	r25, 0x00	; 0
     a9e:	4f ef       	ldi	r20, 0xFF	; 255
     aa0:	5f e5       	ldi	r21, 0x5F	; 95
     aa2:	6f eb       	ldi	r22, 0xBF	; 191
     aa4:	70 e0       	ldi	r23, 0x00	; 0
     aa6:	21 e0       	ldi	r18, 0x01	; 1
     aa8:	0e 94 55 0e 	call	0x1caa	; 0x1caa <WS2811_SetGroupColor>
WS2811_SetGroupColor(Group3, COLOR_PAARS, Ja);
     aac:	83 e0       	ldi	r24, 0x03	; 3
     aae:	90 e0       	ldi	r25, 0x00	; 0
     ab0:	4f ef       	ldi	r20, 0xFF	; 255
     ab2:	5f e5       	ldi	r21, 0x5F	; 95
     ab4:	6f eb       	ldi	r22, 0xBF	; 191
     ab6:	70 e0       	ldi	r23, 0x00	; 0
     ab8:	21 e0       	ldi	r18, 0x01	; 1
     aba:	0e 94 55 0e 	call	0x1caa	; 0x1caa <WS2811_SetGroupColor>
WS2801_Set_Delay_Update(Intensity, 386, LS_DELAY_1, Ja); //386
     abe:	8c 2f       	mov	r24, r28
     ac0:	42 e8       	ldi	r20, 0x82	; 130
     ac2:	51 e0       	ldi	r21, 0x01	; 1
     ac4:	60 e0       	ldi	r22, 0x00	; 0
     ac6:	70 e0       	ldi	r23, 0x00	; 0
     ac8:	0a ef       	ldi	r16, 0xFA	; 250
     aca:	10 e0       	ldi	r17, 0x00	; 0
     acc:	20 e0       	ldi	r18, 0x00	; 0
     ace:	30 e0       	ldi	r19, 0x00	; 0
     ad0:	0e 94 e5 01 	call	0x3ca	; 0x3ca <WS2801_Set_Delay_Update>
WS2811_SetGroupColor(Group2, COLOR_PAARS, Speciaal);
     ad4:	82 e0       	ldi	r24, 0x02	; 2
     ad6:	90 e0       	ldi	r25, 0x00	; 0
     ad8:	4f ef       	ldi	r20, 0xFF	; 255
     ada:	5f e5       	ldi	r21, 0x5F	; 95
     adc:	6f eb       	ldi	r22, 0xBF	; 191
     ade:	70 e0       	ldi	r23, 0x00	; 0
     ae0:	25 e0       	ldi	r18, 0x05	; 5
     ae2:	0e 94 55 0e 	call	0x1caa	; 0x1caa <WS2811_SetGroupColor>
WS2811_SetGroupColor(Group3, COLOR_PAARS, Speciaal);
     ae6:	83 e0       	ldi	r24, 0x03	; 3
     ae8:	90 e0       	ldi	r25, 0x00	; 0
     aea:	4f ef       	ldi	r20, 0xFF	; 255
     aec:	5f e5       	ldi	r21, 0x5F	; 95
     aee:	6f eb       	ldi	r22, 0xBF	; 191
     af0:	70 e0       	ldi	r23, 0x00	; 0
     af2:	25 e0       	ldi	r18, 0x05	; 5
     af4:	0e 94 55 0e 	call	0x1caa	; 0x1caa <WS2811_SetGroupColor>
WS2801_Set_Delay_Update(Intensity, 391, LS_DELAY_1, Ja); //391
     af8:	8c 2f       	mov	r24, r28
     afa:	47 e8       	ldi	r20, 0x87	; 135
     afc:	51 e0       	ldi	r21, 0x01	; 1
     afe:	60 e0       	ldi	r22, 0x00	; 0
     b00:	70 e0       	ldi	r23, 0x00	; 0
     b02:	0a ef       	ldi	r16, 0xFA	; 250
     b04:	10 e0       	ldi	r17, 0x00	; 0
     b06:	20 e0       	ldi	r18, 0x00	; 0
     b08:	30 e0       	ldi	r19, 0x00	; 0
     b0a:	0e 94 e5 01 	call	0x3ca	; 0x3ca <WS2801_Set_Delay_Update>
WS2811_SetGroupColor(Group2, COLOR_UIT, Ja);
     b0e:	82 e0       	ldi	r24, 0x02	; 2
     b10:	90 e0       	ldi	r25, 0x00	; 0
     b12:	40 e0       	ldi	r20, 0x00	; 0
     b14:	50 e0       	ldi	r21, 0x00	; 0
     b16:	ba 01       	movw	r22, r20
     b18:	21 e0       	ldi	r18, 0x01	; 1
     b1a:	0e 94 55 0e 	call	0x1caa	; 0x1caa <WS2811_SetGroupColor>
WS2811_SetGroupColor(Group3, COLOR_UIT, Ja);
     b1e:	83 e0       	ldi	r24, 0x03	; 3
     b20:	90 e0       	ldi	r25, 0x00	; 0
     b22:	40 e0       	ldi	r20, 0x00	; 0
     b24:	50 e0       	ldi	r21, 0x00	; 0
     b26:	ba 01       	movw	r22, r20
     b28:	21 e0       	ldi	r18, 0x01	; 1
     b2a:	0e 94 55 0e 	call	0x1caa	; 0x1caa <WS2811_SetGroupColor>
WS2811_SetGroupColor(Group1, COLOR_LIGHT_PURPLE, Speciaal);
     b2e:	81 e0       	ldi	r24, 0x01	; 1
     b30:	90 e0       	ldi	r25, 0x00	; 0
     b32:	4f ed       	ldi	r20, 0xDF	; 223
     b34:	50 ed       	ldi	r21, 0xD0	; 208
     b36:	68 ee       	ldi	r22, 0xE8	; 232
     b38:	70 e0       	ldi	r23, 0x00	; 0
     b3a:	25 e0       	ldi	r18, 0x05	; 5
     b3c:	0e 94 55 0e 	call	0x1caa	; 0x1caa <WS2811_SetGroupColor>
WS2811_SetGroupColor(Group4, COLOR_LIGHT_PURPLE, Speciaal);
     b40:	84 e0       	ldi	r24, 0x04	; 4
     b42:	90 e0       	ldi	r25, 0x00	; 0
     b44:	4f ed       	ldi	r20, 0xDF	; 223
     b46:	50 ed       	ldi	r21, 0xD0	; 208
     b48:	68 ee       	ldi	r22, 0xE8	; 232
     b4a:	70 e0       	ldi	r23, 0x00	; 0
     b4c:	25 e0       	ldi	r18, 0x05	; 5
     b4e:	0e 94 55 0e 	call	0x1caa	; 0x1caa <WS2811_SetGroupColor>
WS2801_Set_Delay_Update(Intensity, 285, LS_DELAY_1, Ja); //285
     b52:	8c 2f       	mov	r24, r28
     b54:	4d e1       	ldi	r20, 0x1D	; 29
     b56:	51 e0       	ldi	r21, 0x01	; 1
     b58:	60 e0       	ldi	r22, 0x00	; 0
     b5a:	70 e0       	ldi	r23, 0x00	; 0
     b5c:	0a ef       	ldi	r16, 0xFA	; 250
     b5e:	10 e0       	ldi	r17, 0x00	; 0
     b60:	20 e0       	ldi	r18, 0x00	; 0
     b62:	30 e0       	ldi	r19, 0x00	; 0
     b64:	0e 94 e5 01 	call	0x3ca	; 0x3ca <WS2801_Set_Delay_Update>
WS2811_SetGroupColor(GroupAll, COLOR_UIT, Neen);
     b68:	86 e0       	ldi	r24, 0x06	; 6
     b6a:	90 e0       	ldi	r25, 0x00	; 0
     b6c:	40 e0       	ldi	r20, 0x00	; 0
     b6e:	50 e0       	ldi	r21, 0x00	; 0
     b70:	ba 01       	movw	r22, r20
     b72:	22 e0       	ldi	r18, 0x02	; 2
     b74:	0e 94 55 0e 	call	0x1caa	; 0x1caa <WS2811_SetGroupColor>
WS2801_Set_Delay_Update(Intensity, 791, LS_DELAY_1, Ja); //791
     b78:	8c 2f       	mov	r24, r28
     b7a:	47 e1       	ldi	r20, 0x17	; 23
     b7c:	53 e0       	ldi	r21, 0x03	; 3
     b7e:	60 e0       	ldi	r22, 0x00	; 0
     b80:	70 e0       	ldi	r23, 0x00	; 0
     b82:	0a ef       	ldi	r16, 0xFA	; 250
     b84:	10 e0       	ldi	r17, 0x00	; 0
     b86:	20 e0       	ldi	r18, 0x00	; 0
     b88:	30 e0       	ldi	r19, 0x00	; 0
     b8a:	0e 94 e5 01 	call	0x3ca	; 0x3ca <WS2801_Set_Delay_Update>

WS2811_SetGroupColor(Group2, COLOR_PAARS, Ja);
     b8e:	82 e0       	ldi	r24, 0x02	; 2
     b90:	90 e0       	ldi	r25, 0x00	; 0
     b92:	4f ef       	ldi	r20, 0xFF	; 255
     b94:	5f e5       	ldi	r21, 0x5F	; 95
     b96:	6f eb       	ldi	r22, 0xBF	; 191
     b98:	70 e0       	ldi	r23, 0x00	; 0
     b9a:	21 e0       	ldi	r18, 0x01	; 1
     b9c:	0e 94 55 0e 	call	0x1caa	; 0x1caa <WS2811_SetGroupColor>
WS2811_SetGroupColor(Group3, COLOR_PAARS, Ja);
     ba0:	83 e0       	ldi	r24, 0x03	; 3
     ba2:	90 e0       	ldi	r25, 0x00	; 0
     ba4:	4f ef       	ldi	r20, 0xFF	; 255
     ba6:	5f e5       	ldi	r21, 0x5F	; 95
     ba8:	6f eb       	ldi	r22, 0xBF	; 191
     baa:	70 e0       	ldi	r23, 0x00	; 0
     bac:	21 e0       	ldi	r18, 0x01	; 1
     bae:	0e 94 55 0e 	call	0x1caa	; 0x1caa <WS2811_SetGroupColor>
WS2801_Set_Delay_Update(Intensity, 308, LS_DELAY_1, Ja); //308
     bb2:	8c 2f       	mov	r24, r28
     bb4:	44 e3       	ldi	r20, 0x34	; 52
     bb6:	51 e0       	ldi	r21, 0x01	; 1
     bb8:	60 e0       	ldi	r22, 0x00	; 0
     bba:	70 e0       	ldi	r23, 0x00	; 0
     bbc:	0a ef       	ldi	r16, 0xFA	; 250
     bbe:	10 e0       	ldi	r17, 0x00	; 0
     bc0:	20 e0       	ldi	r18, 0x00	; 0
     bc2:	30 e0       	ldi	r19, 0x00	; 0
     bc4:	0e 94 e5 01 	call	0x3ca	; 0x3ca <WS2801_Set_Delay_Update>
WS2811_SetGroupColor(Group1, COLOR_PAARS, Ja);
     bc8:	81 e0       	ldi	r24, 0x01	; 1
     bca:	90 e0       	ldi	r25, 0x00	; 0
     bcc:	4f ef       	ldi	r20, 0xFF	; 255
     bce:	5f e5       	ldi	r21, 0x5F	; 95
     bd0:	6f eb       	ldi	r22, 0xBF	; 191
     bd2:	70 e0       	ldi	r23, 0x00	; 0
     bd4:	21 e0       	ldi	r18, 0x01	; 1
     bd6:	0e 94 55 0e 	call	0x1caa	; 0x1caa <WS2811_SetGroupColor>
WS2801_Set_Delay_Update(Intensity, 396, LS_DELAY_1, Ja); //396
     bda:	8c 2f       	mov	r24, r28
     bdc:	4c e8       	ldi	r20, 0x8C	; 140
     bde:	51 e0       	ldi	r21, 0x01	; 1
     be0:	60 e0       	ldi	r22, 0x00	; 0
     be2:	70 e0       	ldi	r23, 0x00	; 0
     be4:	0a ef       	ldi	r16, 0xFA	; 250
     be6:	10 e0       	ldi	r17, 0x00	; 0
     be8:	20 e0       	ldi	r18, 0x00	; 0
     bea:	30 e0       	ldi	r19, 0x00	; 0
     bec:	0e 94 e5 01 	call	0x3ca	; 0x3ca <WS2801_Set_Delay_Update>
WS2811_SetGroupColor(Group4, COLOR_PAARS, Ja);
     bf0:	84 e0       	ldi	r24, 0x04	; 4
     bf2:	90 e0       	ldi	r25, 0x00	; 0
     bf4:	4f ef       	ldi	r20, 0xFF	; 255
     bf6:	5f e5       	ldi	r21, 0x5F	; 95
     bf8:	6f eb       	ldi	r22, 0xBF	; 191
     bfa:	70 e0       	ldi	r23, 0x00	; 0
     bfc:	21 e0       	ldi	r18, 0x01	; 1
     bfe:	0e 94 55 0e 	call	0x1caa	; 0x1caa <WS2811_SetGroupColor>
WS2801_Set_Delay_Update(Intensity, 405, LS_DELAY_1, Ja); //405
     c02:	8c 2f       	mov	r24, r28
     c04:	45 e9       	ldi	r20, 0x95	; 149
     c06:	51 e0       	ldi	r21, 0x01	; 1
     c08:	60 e0       	ldi	r22, 0x00	; 0
     c0a:	70 e0       	ldi	r23, 0x00	; 0
     c0c:	0a ef       	ldi	r16, 0xFA	; 250
     c0e:	10 e0       	ldi	r17, 0x00	; 0
     c10:	20 e0       	ldi	r18, 0x00	; 0
     c12:	30 e0       	ldi	r19, 0x00	; 0
     c14:	0e 94 e5 01 	call	0x3ca	; 0x3ca <WS2801_Set_Delay_Update>
WS2811_SetGroupColor(GroupAll, COLOR_LIGHT_PURPLE, Neen);
     c18:	86 e0       	ldi	r24, 0x06	; 6
     c1a:	90 e0       	ldi	r25, 0x00	; 0
     c1c:	4f ed       	ldi	r20, 0xDF	; 223
     c1e:	50 ed       	ldi	r21, 0xD0	; 208
     c20:	68 ee       	ldi	r22, 0xE8	; 232
     c22:	70 e0       	ldi	r23, 0x00	; 0
     c24:	22 e0       	ldi	r18, 0x02	; 2
     c26:	0e 94 55 0e 	call	0x1caa	; 0x1caa <WS2811_SetGroupColor>
WS2801_Set_Delay_Update(Intensity, 1371, LS_DELAY_1, Ja); //1371
     c2a:	8c 2f       	mov	r24, r28
     c2c:	4b e5       	ldi	r20, 0x5B	; 91
     c2e:	55 e0       	ldi	r21, 0x05	; 5
     c30:	60 e0       	ldi	r22, 0x00	; 0
     c32:	70 e0       	ldi	r23, 0x00	; 0
     c34:	0a ef       	ldi	r16, 0xFA	; 250
     c36:	10 e0       	ldi	r17, 0x00	; 0
     c38:	20 e0       	ldi	r18, 0x00	; 0
     c3a:	30 e0       	ldi	r19, 0x00	; 0
     c3c:	0e 94 e5 01 	call	0x3ca	; 0x3ca <WS2801_Set_Delay_Update>

WS2811_SetGroupColor(GroupAll, COLOR_UIT, Neen);
     c40:	86 e0       	ldi	r24, 0x06	; 6
     c42:	90 e0       	ldi	r25, 0x00	; 0
     c44:	40 e0       	ldi	r20, 0x00	; 0
     c46:	50 e0       	ldi	r21, 0x00	; 0
     c48:	ba 01       	movw	r22, r20
     c4a:	22 e0       	ldi	r18, 0x02	; 2
     c4c:	0e 94 55 0e 	call	0x1caa	; 0x1caa <WS2811_SetGroupColor>
WS2801_Set_Delay_Update(Intensity, 437, LS_DELAY_1, Ja); //437
     c50:	8c 2f       	mov	r24, r28
     c52:	45 eb       	ldi	r20, 0xB5	; 181
     c54:	51 e0       	ldi	r21, 0x01	; 1
     c56:	60 e0       	ldi	r22, 0x00	; 0
     c58:	70 e0       	ldi	r23, 0x00	; 0
     c5a:	0a ef       	ldi	r16, 0xFA	; 250
     c5c:	10 e0       	ldi	r17, 0x00	; 0
     c5e:	20 e0       	ldi	r18, 0x00	; 0
     c60:	30 e0       	ldi	r19, 0x00	; 0
     c62:	0e 94 e5 01 	call	0x3ca	; 0x3ca <WS2801_Set_Delay_Update>
WS2811_SetGroupColor(Group2, COLOR_PAARS, Ja);
     c66:	82 e0       	ldi	r24, 0x02	; 2
     c68:	90 e0       	ldi	r25, 0x00	; 0
     c6a:	4f ef       	ldi	r20, 0xFF	; 255
     c6c:	5f e5       	ldi	r21, 0x5F	; 95
     c6e:	6f eb       	ldi	r22, 0xBF	; 191
     c70:	70 e0       	ldi	r23, 0x00	; 0
     c72:	21 e0       	ldi	r18, 0x01	; 1
     c74:	0e 94 55 0e 	call	0x1caa	; 0x1caa <WS2811_SetGroupColor>
WS2811_SetGroupColor(Group3, COLOR_PAARS, Ja);
     c78:	83 e0       	ldi	r24, 0x03	; 3
     c7a:	90 e0       	ldi	r25, 0x00	; 0
     c7c:	4f ef       	ldi	r20, 0xFF	; 255
     c7e:	5f e5       	ldi	r21, 0x5F	; 95
     c80:	6f eb       	ldi	r22, 0xBF	; 191
     c82:	70 e0       	ldi	r23, 0x00	; 0
     c84:	21 e0       	ldi	r18, 0x01	; 1
     c86:	0e 94 55 0e 	call	0x1caa	; 0x1caa <WS2811_SetGroupColor>
WS2801_Set_Delay_Update(Intensity, 301, LS_DELAY_1, Ja); //301
     c8a:	8c 2f       	mov	r24, r28
     c8c:	4d e2       	ldi	r20, 0x2D	; 45
     c8e:	51 e0       	ldi	r21, 0x01	; 1
     c90:	60 e0       	ldi	r22, 0x00	; 0
     c92:	70 e0       	ldi	r23, 0x00	; 0
     c94:	0a ef       	ldi	r16, 0xFA	; 250
     c96:	10 e0       	ldi	r17, 0x00	; 0
     c98:	20 e0       	ldi	r18, 0x00	; 0
     c9a:	30 e0       	ldi	r19, 0x00	; 0
     c9c:	0e 94 e5 01 	call	0x3ca	; 0x3ca <WS2801_Set_Delay_Update>
WS2811_SetGroupColor(Group1, COLOR_PAARS, Ja);
     ca0:	81 e0       	ldi	r24, 0x01	; 1
     ca2:	90 e0       	ldi	r25, 0x00	; 0
     ca4:	4f ef       	ldi	r20, 0xFF	; 255
     ca6:	5f e5       	ldi	r21, 0x5F	; 95
     ca8:	6f eb       	ldi	r22, 0xBF	; 191
     caa:	70 e0       	ldi	r23, 0x00	; 0
     cac:	21 e0       	ldi	r18, 0x01	; 1
     cae:	0e 94 55 0e 	call	0x1caa	; 0x1caa <WS2811_SetGroupColor>
WS2801_Set_Delay_Update(Intensity, 327, LS_DELAY_1, Ja); //327
     cb2:	8c 2f       	mov	r24, r28
     cb4:	47 e4       	ldi	r20, 0x47	; 71
     cb6:	51 e0       	ldi	r21, 0x01	; 1
     cb8:	60 e0       	ldi	r22, 0x00	; 0
     cba:	70 e0       	ldi	r23, 0x00	; 0
     cbc:	0a ef       	ldi	r16, 0xFA	; 250
     cbe:	10 e0       	ldi	r17, 0x00	; 0
     cc0:	20 e0       	ldi	r18, 0x00	; 0
     cc2:	30 e0       	ldi	r19, 0x00	; 0
     cc4:	0e 94 e5 01 	call	0x3ca	; 0x3ca <WS2801_Set_Delay_Update>
WS2811_SetGroupColor(Group4, COLOR_PAARS, Ja);
     cc8:	84 e0       	ldi	r24, 0x04	; 4
     cca:	90 e0       	ldi	r25, 0x00	; 0
     ccc:	4f ef       	ldi	r20, 0xFF	; 255
     cce:	5f e5       	ldi	r21, 0x5F	; 95
     cd0:	6f eb       	ldi	r22, 0xBF	; 191
     cd2:	70 e0       	ldi	r23, 0x00	; 0
     cd4:	21 e0       	ldi	r18, 0x01	; 1
     cd6:	0e 94 55 0e 	call	0x1caa	; 0x1caa <WS2811_SetGroupColor>
WS2801_Set_Delay_Update(Intensity, 810, LS_DELAY_1, Ja); //810
     cda:	8c 2f       	mov	r24, r28
     cdc:	4a e2       	ldi	r20, 0x2A	; 42
     cde:	53 e0       	ldi	r21, 0x03	; 3
     ce0:	60 e0       	ldi	r22, 0x00	; 0
     ce2:	70 e0       	ldi	r23, 0x00	; 0
     ce4:	0a ef       	ldi	r16, 0xFA	; 250
     ce6:	10 e0       	ldi	r17, 0x00	; 0
     ce8:	20 e0       	ldi	r18, 0x00	; 0
     cea:	30 e0       	ldi	r19, 0x00	; 0
     cec:	0e 94 e5 01 	call	0x3ca	; 0x3ca <WS2801_Set_Delay_Update>

WS2811_SetGroupColor(Group4, COLOR_PAARS, Ja);
     cf0:	84 e0       	ldi	r24, 0x04	; 4
     cf2:	90 e0       	ldi	r25, 0x00	; 0
     cf4:	4f ef       	ldi	r20, 0xFF	; 255
     cf6:	5f e5       	ldi	r21, 0x5F	; 95
     cf8:	6f eb       	ldi	r22, 0xBF	; 191
     cfa:	70 e0       	ldi	r23, 0x00	; 0
     cfc:	21 e0       	ldi	r18, 0x01	; 1
     cfe:	0e 94 55 0e 	call	0x1caa	; 0x1caa <WS2811_SetGroupColor>
WS2801_Set_Delay_Update(Intensity, 299, LS_DELAY_1, Ja); //299
     d02:	8c 2f       	mov	r24, r28
     d04:	4b e2       	ldi	r20, 0x2B	; 43
     d06:	51 e0       	ldi	r21, 0x01	; 1
     d08:	60 e0       	ldi	r22, 0x00	; 0
     d0a:	70 e0       	ldi	r23, 0x00	; 0
     d0c:	0a ef       	ldi	r16, 0xFA	; 250
     d0e:	10 e0       	ldi	r17, 0x00	; 0
     d10:	20 e0       	ldi	r18, 0x00	; 0
     d12:	30 e0       	ldi	r19, 0x00	; 0
     d14:	0e 94 e5 01 	call	0x3ca	; 0x3ca <WS2801_Set_Delay_Update>
WS2811_SetGroupColor(Group2, COLOR_PAARS, Ja);
     d18:	82 e0       	ldi	r24, 0x02	; 2
     d1a:	90 e0       	ldi	r25, 0x00	; 0
     d1c:	4f ef       	ldi	r20, 0xFF	; 255
     d1e:	5f e5       	ldi	r21, 0x5F	; 95
     d20:	6f eb       	ldi	r22, 0xBF	; 191
     d22:	70 e0       	ldi	r23, 0x00	; 0
     d24:	21 e0       	ldi	r18, 0x01	; 1
     d26:	0e 94 55 0e 	call	0x1caa	; 0x1caa <WS2811_SetGroupColor>
WS2811_SetGroupColor(Group3, COLOR_PAARS, Ja);
     d2a:	83 e0       	ldi	r24, 0x03	; 3
     d2c:	90 e0       	ldi	r25, 0x00	; 0
     d2e:	4f ef       	ldi	r20, 0xFF	; 255
     d30:	5f e5       	ldi	r21, 0x5F	; 95
     d32:	6f eb       	ldi	r22, 0xBF	; 191
     d34:	70 e0       	ldi	r23, 0x00	; 0
     d36:	21 e0       	ldi	r18, 0x01	; 1
     d38:	0e 94 55 0e 	call	0x1caa	; 0x1caa <WS2811_SetGroupColor>
WS2811_RotateGroup(Group4, 1, Rechts, Neen, 0);
     d3c:	84 e0       	ldi	r24, 0x04	; 4
     d3e:	61 e0       	ldi	r22, 0x01	; 1
     d40:	42 e0       	ldi	r20, 0x02	; 2
     d42:	22 e0       	ldi	r18, 0x02	; 2
     d44:	00 e0       	ldi	r16, 0x00	; 0
     d46:	10 e0       	ldi	r17, 0x00	; 0
     d48:	0e 94 80 0f 	call	0x1f00	; 0x1f00 <WS2811_RotateGroup>
WS2801_Set_Delay_Update(Intensity, 170-ROTATE_DELAY, LS_DELAY_1, Ja); //170
     d4c:	8c 2f       	mov	r24, r28
     d4e:	45 e6       	ldi	r20, 0x65	; 101
     d50:	50 e0       	ldi	r21, 0x00	; 0
     d52:	60 e0       	ldi	r22, 0x00	; 0
     d54:	70 e0       	ldi	r23, 0x00	; 0
     d56:	0a ef       	ldi	r16, 0xFA	; 250
     d58:	10 e0       	ldi	r17, 0x00	; 0
     d5a:	20 e0       	ldi	r18, 0x00	; 0
     d5c:	30 e0       	ldi	r19, 0x00	; 0
     d5e:	0e 94 e5 01 	call	0x3ca	; 0x3ca <WS2801_Set_Delay_Update>
WS2811_RotateGroup(Group4, 1, Rechts, Neen, 0);
     d62:	84 e0       	ldi	r24, 0x04	; 4
     d64:	61 e0       	ldi	r22, 0x01	; 1
     d66:	42 e0       	ldi	r20, 0x02	; 2
     d68:	22 e0       	ldi	r18, 0x02	; 2
     d6a:	00 e0       	ldi	r16, 0x00	; 0
     d6c:	10 e0       	ldi	r17, 0x00	; 0
     d6e:	0e 94 80 0f 	call	0x1f00	; 0x1f00 <WS2811_RotateGroup>
WS2801_Set_Delay_Update(Intensity, 258-ROTATE_DELAY, LS_DELAY_1, Ja); //258
     d72:	8c 2f       	mov	r24, r28
     d74:	4d eb       	ldi	r20, 0xBD	; 189
     d76:	50 e0       	ldi	r21, 0x00	; 0
     d78:	60 e0       	ldi	r22, 0x00	; 0
     d7a:	70 e0       	ldi	r23, 0x00	; 0
     d7c:	0a ef       	ldi	r16, 0xFA	; 250
     d7e:	10 e0       	ldi	r17, 0x00	; 0
     d80:	20 e0       	ldi	r18, 0x00	; 0
     d82:	30 e0       	ldi	r19, 0x00	; 0
     d84:	0e 94 e5 01 	call	0x3ca	; 0x3ca <WS2801_Set_Delay_Update>
WS2811_RotateGroup(Group4, 1, Rechts, Neen, 0);
     d88:	84 e0       	ldi	r24, 0x04	; 4
     d8a:	61 e0       	ldi	r22, 0x01	; 1
     d8c:	42 e0       	ldi	r20, 0x02	; 2
     d8e:	22 e0       	ldi	r18, 0x02	; 2
     d90:	00 e0       	ldi	r16, 0x00	; 0
     d92:	10 e0       	ldi	r17, 0x00	; 0
     d94:	0e 94 80 0f 	call	0x1f00	; 0x1f00 <WS2811_RotateGroup>
WS2801_Set_Delay_Update(Intensity, 368-ROTATE_DELAY, LS_DELAY_1, Ja); //368
     d98:	8c 2f       	mov	r24, r28
     d9a:	4b e2       	ldi	r20, 0x2B	; 43
     d9c:	51 e0       	ldi	r21, 0x01	; 1
     d9e:	60 e0       	ldi	r22, 0x00	; 0
     da0:	70 e0       	ldi	r23, 0x00	; 0
     da2:	0a ef       	ldi	r16, 0xFA	; 250
     da4:	10 e0       	ldi	r17, 0x00	; 0
     da6:	20 e0       	ldi	r18, 0x00	; 0
     da8:	30 e0       	ldi	r19, 0x00	; 0
     daa:	0e 94 e5 01 	call	0x3ca	; 0x3ca <WS2801_Set_Delay_Update>
WS2811_SetGroupColor(Group2, COLOR_PAARS, Speciaal);
     dae:	82 e0       	ldi	r24, 0x02	; 2
     db0:	90 e0       	ldi	r25, 0x00	; 0
     db2:	4f ef       	ldi	r20, 0xFF	; 255
     db4:	5f e5       	ldi	r21, 0x5F	; 95
     db6:	6f eb       	ldi	r22, 0xBF	; 191
     db8:	70 e0       	ldi	r23, 0x00	; 0
     dba:	25 e0       	ldi	r18, 0x05	; 5
     dbc:	0e 94 55 0e 	call	0x1caa	; 0x1caa <WS2811_SetGroupColor>
WS2811_SetGroupColor(Group3, COLOR_PAARS, Speciaal);
     dc0:	83 e0       	ldi	r24, 0x03	; 3
     dc2:	90 e0       	ldi	r25, 0x00	; 0
     dc4:	4f ef       	ldi	r20, 0xFF	; 255
     dc6:	5f e5       	ldi	r21, 0x5F	; 95
     dc8:	6f eb       	ldi	r22, 0xBF	; 191
     dca:	70 e0       	ldi	r23, 0x00	; 0
     dcc:	25 e0       	ldi	r18, 0x05	; 5
     dce:	0e 94 55 0e 	call	0x1caa	; 0x1caa <WS2811_SetGroupColor>
WS2811_SetGroupColor(Group1, COLOR_PAARS, Ja);
     dd2:	81 e0       	ldi	r24, 0x01	; 1
     dd4:	90 e0       	ldi	r25, 0x00	; 0
     dd6:	4f ef       	ldi	r20, 0xFF	; 255
     dd8:	5f e5       	ldi	r21, 0x5F	; 95
     dda:	6f eb       	ldi	r22, 0xBF	; 191
     ddc:	70 e0       	ldi	r23, 0x00	; 0
     dde:	21 e0       	ldi	r18, 0x01	; 1
     de0:	0e 94 55 0e 	call	0x1caa	; 0x1caa <WS2811_SetGroupColor>
WS2811_RotateGroup(Group4, 1, Rechts, Neen, 0);
     de4:	84 e0       	ldi	r24, 0x04	; 4
     de6:	61 e0       	ldi	r22, 0x01	; 1
     de8:	42 e0       	ldi	r20, 0x02	; 2
     dea:	22 e0       	ldi	r18, 0x02	; 2
     dec:	00 e0       	ldi	r16, 0x00	; 0
     dee:	10 e0       	ldi	r17, 0x00	; 0
     df0:	0e 94 80 0f 	call	0x1f00	; 0x1f00 <WS2811_RotateGroup>
WS2801_Set_Delay_Update(Intensity, 311-ROTATE_DELAY, LS_DELAY_1, Ja); //311
     df4:	8c 2f       	mov	r24, r28
     df6:	42 ef       	ldi	r20, 0xF2	; 242
     df8:	50 e0       	ldi	r21, 0x00	; 0
     dfa:	60 e0       	ldi	r22, 0x00	; 0
     dfc:	70 e0       	ldi	r23, 0x00	; 0
     dfe:	0a ef       	ldi	r16, 0xFA	; 250
     e00:	10 e0       	ldi	r17, 0x00	; 0
     e02:	20 e0       	ldi	r18, 0x00	; 0
     e04:	30 e0       	ldi	r19, 0x00	; 0
     e06:	0e 94 e5 01 	call	0x3ca	; 0x3ca <WS2801_Set_Delay_Update>
WS2811_SetGroupColor(GroupAll, COLOR_UIT, Neen);
     e0a:	86 e0       	ldi	r24, 0x06	; 6
     e0c:	90 e0       	ldi	r25, 0x00	; 0
     e0e:	40 e0       	ldi	r20, 0x00	; 0
     e10:	50 e0       	ldi	r21, 0x00	; 0
     e12:	ba 01       	movw	r22, r20
     e14:	22 e0       	ldi	r18, 0x02	; 2
     e16:	0e 94 55 0e 	call	0x1caa	; 0x1caa <WS2811_SetGroupColor>
WS2801_Set_Delay_Update(Intensity, 810, LS_DELAY_1, Ja); //810
     e1a:	8c 2f       	mov	r24, r28
     e1c:	4a e2       	ldi	r20, 0x2A	; 42
     e1e:	53 e0       	ldi	r21, 0x03	; 3
     e20:	60 e0       	ldi	r22, 0x00	; 0
     e22:	70 e0       	ldi	r23, 0x00	; 0
     e24:	0a ef       	ldi	r16, 0xFA	; 250
     e26:	10 e0       	ldi	r17, 0x00	; 0
     e28:	20 e0       	ldi	r18, 0x00	; 0
     e2a:	30 e0       	ldi	r19, 0x00	; 0
     e2c:	0e 94 e5 01 	call	0x3ca	; 0x3ca <WS2801_Set_Delay_Update>
}
     e30:	cf 91       	pop	r28
     e32:	1f 91       	pop	r17
     e34:	0f 91       	pop	r16
     e36:	ef 90       	pop	r14
     e38:	08 95       	ret

00000e3a <ALLON>:
#ifndef COLORS_RAINBOW
const long COLORS_RAINBOW [COLORS_RAINBOW_LENGTH] = {0xFF2100, 0xFF4200, 0xFF6300, 0xFF8400, 0xFFA500, 0xFFC600, 0xFFE700, 0xFFff00, 0xDEff00, 0xBDff00, 0x9Cff00, 0x7Bff00, 0x5Aff00, 0x39ff00, 0x18ff00, 0x00ff00, 0x00ff21, 0x00ff42, 0x00ff63, 0x00ff84, 0x00ffA5, 0x00ffC6, 0x00ffE7, 0x00ffff, 0x00E7ff, 0x00C6ff, 0x00A5ff, 0x0084ff, 0x0063ff, 0x0042ff, 0x0021ff, 0x0000ff};
#endif

void ALLON(void){
	WS2811_SetMid(GroupALL_Start, GroupALL_Length, COLOR_WIT);
     e3a:	81 e0       	ldi	r24, 0x01	; 1
     e3c:	69 e1       	ldi	r22, 0x19	; 25
     e3e:	2f ef       	ldi	r18, 0xFF	; 255
     e40:	3f ef       	ldi	r19, 0xFF	; 255
     e42:	4f ef       	ldi	r20, 0xFF	; 255
     e44:	50 e0       	ldi	r21, 0x00	; 0
     e46:	0e 94 e8 0d 	call	0x1bd0	; 0x1bd0 <WS2811_SetMid>
	WS2811_Update();
     e4a:	0e 94 7c 0d 	call	0x1af8	; 0x1af8 <WS2811_Update>
	WS2801_SetColorUpdate(LS_COLOR_WIT);
     e4e:	89 e7       	ldi	r24, 0x79	; 121
     e50:	0e 94 e0 01 	call	0x3c0	; 0x3c0 <WS2801_SetColorUpdate>
}
     e54:	08 95       	ret

00000e56 <SONGMIX1>:

void SONGMIX1(void){
     e56:	ef 92       	push	r14
     e58:	0f 93       	push	r16
     e5a:	1f 93       	push	r17
	#define LS_DELAY_1 250
	#define ROTATE_DELAY 69
	#define ROTATE_DELAYM 45
	uint8_t Intensity = 0x09;
	DEEL1(Intensity);
     e5c:	89 e0       	ldi	r24, 0x09	; 9
     e5e:	90 e0       	ldi	r25, 0x00	; 0
     e60:	0e 94 6f 03 	call	0x6de	; 0x6de <DEEL1>
//Rustig
	Intensity = 0x30;
	DEEL2(Intensity);
     e64:	80 e3       	ldi	r24, 0x30	; 48
     e66:	90 e0       	ldi	r25, 0x00	; 0
     e68:	0e 94 35 04 	call	0x86a	; 0x86a <DEEL2>

	Intensity = 0x50;
	DEEL3(Intensity);
     e6c:	80 e5       	ldi	r24, 0x50	; 80
     e6e:	90 e0       	ldi	r25, 0x00	; 0
     e70:	0e 94 8a 02 	call	0x514	; 0x514 <DEEL3>

//Climax
	Intensity = 0x05;

	WS2811_SetGroupRainbowColor(Group4, 1);
     e74:	84 e0       	ldi	r24, 0x04	; 4
     e76:	61 e0       	ldi	r22, 0x01	; 1
     e78:	0e 94 15 0f 	call	0x1e2a	; 0x1e2a <WS2811_SetGroupRainbowColor>
	WS2811_SetGroupRainbowColor(Group5, 9);
     e7c:	85 e0       	ldi	r24, 0x05	; 5
     e7e:	69 e0       	ldi	r22, 0x09	; 9
     e80:	0e 94 15 0f 	call	0x1e2a	; 0x1e2a <WS2811_SetGroupRainbowColor>
WS2801_Set_Delay_Update(Intensity, 367, LS_DELAY_1, Ja); //367 - Climax
     e84:	85 e0       	ldi	r24, 0x05	; 5
     e86:	4f e6       	ldi	r20, 0x6F	; 111
     e88:	51 e0       	ldi	r21, 0x01	; 1
     e8a:	60 e0       	ldi	r22, 0x00	; 0
     e8c:	70 e0       	ldi	r23, 0x00	; 0
     e8e:	0a ef       	ldi	r16, 0xFA	; 250
     e90:	10 e0       	ldi	r17, 0x00	; 0
     e92:	20 e0       	ldi	r18, 0x00	; 0
     e94:	30 e0       	ldi	r19, 0x00	; 0
     e96:	ee 24       	eor	r14, r14
     e98:	e3 94       	inc	r14
     e9a:	0e 94 e5 01 	call	0x3ca	; 0x3ca <WS2801_Set_Delay_Update>
	WS2811_SetGroupRainbowColor(Group4, 9);
     e9e:	84 e0       	ldi	r24, 0x04	; 4
     ea0:	69 e0       	ldi	r22, 0x09	; 9
     ea2:	0e 94 15 0f 	call	0x1e2a	; 0x1e2a <WS2811_SetGroupRainbowColor>
	WS2811_SetGroupRainbowColor(Group5, 1);
     ea6:	85 e0       	ldi	r24, 0x05	; 5
     ea8:	61 e0       	ldi	r22, 0x01	; 1
     eaa:	0e 94 15 0f 	call	0x1e2a	; 0x1e2a <WS2811_SetGroupRainbowColor>
WS2801_Set_Delay_Update(Intensity, 676, LS_DELAY_1, Ja); //676
     eae:	85 e0       	ldi	r24, 0x05	; 5
     eb0:	44 ea       	ldi	r20, 0xA4	; 164
     eb2:	52 e0       	ldi	r21, 0x02	; 2
     eb4:	60 e0       	ldi	r22, 0x00	; 0
     eb6:	70 e0       	ldi	r23, 0x00	; 0
     eb8:	0a ef       	ldi	r16, 0xFA	; 250
     eba:	10 e0       	ldi	r17, 0x00	; 0
     ebc:	20 e0       	ldi	r18, 0x00	; 0
     ebe:	30 e0       	ldi	r19, 0x00	; 0
     ec0:	0e 94 e5 01 	call	0x3ca	; 0x3ca <WS2801_Set_Delay_Update>
	WS2811_SetGroupRainbowColor(Group4, 1);
     ec4:	84 e0       	ldi	r24, 0x04	; 4
     ec6:	61 e0       	ldi	r22, 0x01	; 1
     ec8:	0e 94 15 0f 	call	0x1e2a	; 0x1e2a <WS2811_SetGroupRainbowColor>
	WS2811_SetGroupRainbowColor(Group5, 9);
     ecc:	85 e0       	ldi	r24, 0x05	; 5
     ece:	69 e0       	ldi	r22, 0x09	; 9
     ed0:	0e 94 15 0f 	call	0x1e2a	; 0x1e2a <WS2811_SetGroupRainbowColor>
WS2801_Set_Delay_Update(Intensity, 400, LS_DELAY_1, Ja); //400
     ed4:	85 e0       	ldi	r24, 0x05	; 5
     ed6:	40 e9       	ldi	r20, 0x90	; 144
     ed8:	51 e0       	ldi	r21, 0x01	; 1
     eda:	60 e0       	ldi	r22, 0x00	; 0
     edc:	70 e0       	ldi	r23, 0x00	; 0
     ede:	0a ef       	ldi	r16, 0xFA	; 250
     ee0:	10 e0       	ldi	r17, 0x00	; 0
     ee2:	20 e0       	ldi	r18, 0x00	; 0
     ee4:	30 e0       	ldi	r19, 0x00	; 0
     ee6:	0e 94 e5 01 	call	0x3ca	; 0x3ca <WS2801_Set_Delay_Update>
	WS2811_SetGroupRainbowColor(Group4, 12);
     eea:	84 e0       	ldi	r24, 0x04	; 4
     eec:	6c e0       	ldi	r22, 0x0C	; 12
     eee:	0e 94 15 0f 	call	0x1e2a	; 0x1e2a <WS2811_SetGroupRainbowColor>
	WS2811_SetGroupRainbowColor(Group5, 1);
     ef2:	85 e0       	ldi	r24, 0x05	; 5
     ef4:	61 e0       	ldi	r22, 0x01	; 1
     ef6:	0e 94 15 0f 	call	0x1e2a	; 0x1e2a <WS2811_SetGroupRainbowColor>
WS2801_Set_Delay_Update(Intensity, 686, LS_DELAY_1, Ja); //686
     efa:	85 e0       	ldi	r24, 0x05	; 5
     efc:	4e ea       	ldi	r20, 0xAE	; 174
     efe:	52 e0       	ldi	r21, 0x02	; 2
     f00:	60 e0       	ldi	r22, 0x00	; 0
     f02:	70 e0       	ldi	r23, 0x00	; 0
     f04:	0a ef       	ldi	r16, 0xFA	; 250
     f06:	10 e0       	ldi	r17, 0x00	; 0
     f08:	20 e0       	ldi	r18, 0x00	; 0
     f0a:	30 e0       	ldi	r19, 0x00	; 0
     f0c:	0e 94 e5 01 	call	0x3ca	; 0x3ca <WS2801_Set_Delay_Update>
	WS2811_SetGroupRainbowColor(Group4, 1);
     f10:	84 e0       	ldi	r24, 0x04	; 4
     f12:	61 e0       	ldi	r22, 0x01	; 1
     f14:	0e 94 15 0f 	call	0x1e2a	; 0x1e2a <WS2811_SetGroupRainbowColor>
	WS2811_SetGroupRainbowColor(Group5, 12);
     f18:	85 e0       	ldi	r24, 0x05	; 5
     f1a:	6c e0       	ldi	r22, 0x0C	; 12
     f1c:	0e 94 15 0f 	call	0x1e2a	; 0x1e2a <WS2811_SetGroupRainbowColor>
WS2801_Set_Delay_Update(Intensity, 432, LS_DELAY_1, Ja); //432
     f20:	85 e0       	ldi	r24, 0x05	; 5
     f22:	40 eb       	ldi	r20, 0xB0	; 176
     f24:	51 e0       	ldi	r21, 0x01	; 1
     f26:	60 e0       	ldi	r22, 0x00	; 0
     f28:	70 e0       	ldi	r23, 0x00	; 0
     f2a:	0a ef       	ldi	r16, 0xFA	; 250
     f2c:	10 e0       	ldi	r17, 0x00	; 0
     f2e:	20 e0       	ldi	r18, 0x00	; 0
     f30:	30 e0       	ldi	r19, 0x00	; 0
     f32:	0e 94 e5 01 	call	0x3ca	; 0x3ca <WS2801_Set_Delay_Update>
	WS2811_SetGroupRainbowColor(Group4, 15);
     f36:	84 e0       	ldi	r24, 0x04	; 4
     f38:	6f e0       	ldi	r22, 0x0F	; 15
     f3a:	0e 94 15 0f 	call	0x1e2a	; 0x1e2a <WS2811_SetGroupRainbowColor>
	WS2811_SetGroupRainbowColor(Group5, 1);
     f3e:	85 e0       	ldi	r24, 0x05	; 5
     f40:	61 e0       	ldi	r22, 0x01	; 1
     f42:	0e 94 15 0f 	call	0x1e2a	; 0x1e2a <WS2811_SetGroupRainbowColor>
WS2801_Set_Delay_Update(Intensity, 373, LS_DELAY_1, Ja); //373
     f46:	85 e0       	ldi	r24, 0x05	; 5
     f48:	45 e7       	ldi	r20, 0x75	; 117
     f4a:	51 e0       	ldi	r21, 0x01	; 1
     f4c:	60 e0       	ldi	r22, 0x00	; 0
     f4e:	70 e0       	ldi	r23, 0x00	; 0
     f50:	0a ef       	ldi	r16, 0xFA	; 250
     f52:	10 e0       	ldi	r17, 0x00	; 0
     f54:	20 e0       	ldi	r18, 0x00	; 0
     f56:	30 e0       	ldi	r19, 0x00	; 0
     f58:	0e 94 e5 01 	call	0x3ca	; 0x3ca <WS2801_Set_Delay_Update>
	WS2811_SetGroupRainbowColor(Group4, 1);
     f5c:	84 e0       	ldi	r24, 0x04	; 4
     f5e:	61 e0       	ldi	r22, 0x01	; 1
     f60:	0e 94 15 0f 	call	0x1e2a	; 0x1e2a <WS2811_SetGroupRainbowColor>
	WS2811_SetGroupRainbowColor(Group5, 15);
     f64:	85 e0       	ldi	r24, 0x05	; 5
     f66:	6f e0       	ldi	r22, 0x0F	; 15
     f68:	0e 94 15 0f 	call	0x1e2a	; 0x1e2a <WS2811_SetGroupRainbowColor>
WS2801_Set_Delay_Update(Intensity, 267, LS_DELAY_1, Ja); //267
     f6c:	85 e0       	ldi	r24, 0x05	; 5
     f6e:	4b e0       	ldi	r20, 0x0B	; 11
     f70:	51 e0       	ldi	r21, 0x01	; 1
     f72:	60 e0       	ldi	r22, 0x00	; 0
     f74:	70 e0       	ldi	r23, 0x00	; 0
     f76:	0a ef       	ldi	r16, 0xFA	; 250
     f78:	10 e0       	ldi	r17, 0x00	; 0
     f7a:	20 e0       	ldi	r18, 0x00	; 0
     f7c:	30 e0       	ldi	r19, 0x00	; 0
     f7e:	0e 94 e5 01 	call	0x3ca	; 0x3ca <WS2801_Set_Delay_Update>
	WS2811_SetGroupRainbowColor(Group4, 18);
     f82:	84 e0       	ldi	r24, 0x04	; 4
     f84:	62 e1       	ldi	r22, 0x12	; 18
     f86:	0e 94 15 0f 	call	0x1e2a	; 0x1e2a <WS2811_SetGroupRainbowColor>
	WS2811_SetGroupRainbowColor(Group5, 1);
     f8a:	85 e0       	ldi	r24, 0x05	; 5
     f8c:	61 e0       	ldi	r22, 0x01	; 1
     f8e:	0e 94 15 0f 	call	0x1e2a	; 0x1e2a <WS2811_SetGroupRainbowColor>
WS2801_Set_Delay_Update(Intensity, 432, LS_DELAY_1, Ja); //432
     f92:	85 e0       	ldi	r24, 0x05	; 5
     f94:	40 eb       	ldi	r20, 0xB0	; 176
     f96:	51 e0       	ldi	r21, 0x01	; 1
     f98:	60 e0       	ldi	r22, 0x00	; 0
     f9a:	70 e0       	ldi	r23, 0x00	; 0
     f9c:	0a ef       	ldi	r16, 0xFA	; 250
     f9e:	10 e0       	ldi	r17, 0x00	; 0
     fa0:	20 e0       	ldi	r18, 0x00	; 0
     fa2:	30 e0       	ldi	r19, 0x00	; 0
     fa4:	0e 94 e5 01 	call	0x3ca	; 0x3ca <WS2801_Set_Delay_Update>
	WS2811_SetGroupRainbowColor(Group4, 1);
     fa8:	84 e0       	ldi	r24, 0x04	; 4
     faa:	61 e0       	ldi	r22, 0x01	; 1
     fac:	0e 94 15 0f 	call	0x1e2a	; 0x1e2a <WS2811_SetGroupRainbowColor>
	WS2811_SetGroupRainbowColor(Group5, 1);
     fb0:	85 e0       	ldi	r24, 0x05	; 5
     fb2:	61 e0       	ldi	r22, 0x01	; 1
     fb4:	0e 94 15 0f 	call	0x1e2a	; 0x1e2a <WS2811_SetGroupRainbowColor>
	WS2811_SetMidAlternerend(Group4_Start, Group4_Length, COLOR_UIT, Ja);
     fb8:	81 e1       	ldi	r24, 0x11	; 17
     fba:	69 e0       	ldi	r22, 0x09	; 9
     fbc:	20 e0       	ldi	r18, 0x00	; 0
     fbe:	30 e0       	ldi	r19, 0x00	; 0
     fc0:	a9 01       	movw	r20, r18
     fc2:	01 e0       	ldi	r16, 0x01	; 1
     fc4:	0e 94 0d 0e 	call	0x1c1a	; 0x1c1a <WS2811_SetMidAlternerend>
	WS2811_SetMidAlternerend(Group5_Start, Group5_Length, COLOR_UIT, Ja);
     fc8:	87 e0       	ldi	r24, 0x07	; 7
     fca:	6a e0       	ldi	r22, 0x0A	; 10
     fcc:	20 e0       	ldi	r18, 0x00	; 0
     fce:	30 e0       	ldi	r19, 0x00	; 0
     fd0:	a9 01       	movw	r20, r18
     fd2:	0e 94 0d 0e 	call	0x1c1a	; 0x1c1a <WS2811_SetMidAlternerend>
WS2801_Set_Delay_Update(Intensity, 676, LS_DELAY_1, Ja); //676
     fd6:	85 e0       	ldi	r24, 0x05	; 5
     fd8:	44 ea       	ldi	r20, 0xA4	; 164
     fda:	52 e0       	ldi	r21, 0x02	; 2
     fdc:	60 e0       	ldi	r22, 0x00	; 0
     fde:	70 e0       	ldi	r23, 0x00	; 0
     fe0:	0a ef       	ldi	r16, 0xFA	; 250
     fe2:	10 e0       	ldi	r17, 0x00	; 0
     fe4:	20 e0       	ldi	r18, 0x00	; 0
     fe6:	30 e0       	ldi	r19, 0x00	; 0
     fe8:	0e 94 e5 01 	call	0x3ca	; 0x3ca <WS2801_Set_Delay_Update>

WS2811_RotateGroup(Group2, 1, Rechts, Neen, 0);
     fec:	82 e0       	ldi	r24, 0x02	; 2
     fee:	61 e0       	ldi	r22, 0x01	; 1
     ff0:	42 e0       	ldi	r20, 0x02	; 2
     ff2:	22 e0       	ldi	r18, 0x02	; 2
     ff4:	00 e0       	ldi	r16, 0x00	; 0
     ff6:	10 e0       	ldi	r17, 0x00	; 0
     ff8:	0e 94 80 0f 	call	0x1f00	; 0x1f00 <WS2811_RotateGroup>
WS2811_RotateGroup(Group3, 1, Rechts, Neen, 0);
     ffc:	83 e0       	ldi	r24, 0x03	; 3
     ffe:	61 e0       	ldi	r22, 0x01	; 1
    1000:	42 e0       	ldi	r20, 0x02	; 2
    1002:	22 e0       	ldi	r18, 0x02	; 2
    1004:	0e 94 80 0f 	call	0x1f00	; 0x1f00 <WS2811_RotateGroup>
WS2811_RotateGroup(Group4, 1, Rechts, Neen, 0);
    1008:	84 e0       	ldi	r24, 0x04	; 4
    100a:	61 e0       	ldi	r22, 0x01	; 1
    100c:	42 e0       	ldi	r20, 0x02	; 2
    100e:	22 e0       	ldi	r18, 0x02	; 2
    1010:	0e 94 80 0f 	call	0x1f00	; 0x1f00 <WS2811_RotateGroup>
WS2801_Set_Delay_Update(Intensity, 428-ROTATE_DELAYM, LS_DELAY_1, Ja); //428
    1014:	85 e0       	ldi	r24, 0x05	; 5
    1016:	4f e7       	ldi	r20, 0x7F	; 127
    1018:	51 e0       	ldi	r21, 0x01	; 1
    101a:	60 e0       	ldi	r22, 0x00	; 0
    101c:	70 e0       	ldi	r23, 0x00	; 0
    101e:	0a ef       	ldi	r16, 0xFA	; 250
    1020:	10 e0       	ldi	r17, 0x00	; 0
    1022:	20 e0       	ldi	r18, 0x00	; 0
    1024:	30 e0       	ldi	r19, 0x00	; 0
    1026:	0e 94 e5 01 	call	0x3ca	; 0x3ca <WS2801_Set_Delay_Update>
WS2811_RotateGroup(Group2, 1, Rechts, Neen, 0);
    102a:	82 e0       	ldi	r24, 0x02	; 2
    102c:	61 e0       	ldi	r22, 0x01	; 1
    102e:	42 e0       	ldi	r20, 0x02	; 2
    1030:	22 e0       	ldi	r18, 0x02	; 2
    1032:	00 e0       	ldi	r16, 0x00	; 0
    1034:	10 e0       	ldi	r17, 0x00	; 0
    1036:	0e 94 80 0f 	call	0x1f00	; 0x1f00 <WS2811_RotateGroup>
WS2811_RotateGroup(Group3, 1, Rechts, Neen, 0);
    103a:	83 e0       	ldi	r24, 0x03	; 3
    103c:	61 e0       	ldi	r22, 0x01	; 1
    103e:	42 e0       	ldi	r20, 0x02	; 2
    1040:	22 e0       	ldi	r18, 0x02	; 2
    1042:	0e 94 80 0f 	call	0x1f00	; 0x1f00 <WS2811_RotateGroup>
WS2811_RotateGroup(Group4, 1, Rechts, Neen, 0);
    1046:	84 e0       	ldi	r24, 0x04	; 4
    1048:	61 e0       	ldi	r22, 0x01	; 1
    104a:	42 e0       	ldi	r20, 0x02	; 2
    104c:	22 e0       	ldi	r18, 0x02	; 2
    104e:	0e 94 80 0f 	call	0x1f00	; 0x1f00 <WS2811_RotateGroup>
WS2801_Set_Delay_Update(Intensity, 631-ROTATE_DELAYM, LS_DELAY_1, Ja); //631
    1052:	85 e0       	ldi	r24, 0x05	; 5
    1054:	4a e4       	ldi	r20, 0x4A	; 74
    1056:	52 e0       	ldi	r21, 0x02	; 2
    1058:	60 e0       	ldi	r22, 0x00	; 0
    105a:	70 e0       	ldi	r23, 0x00	; 0
    105c:	0a ef       	ldi	r16, 0xFA	; 250
    105e:	10 e0       	ldi	r17, 0x00	; 0
    1060:	20 e0       	ldi	r18, 0x00	; 0
    1062:	30 e0       	ldi	r19, 0x00	; 0
    1064:	0e 94 e5 01 	call	0x3ca	; 0x3ca <WS2801_Set_Delay_Update>
WS2811_RotateGroup(Group2, 1, Rechts, Neen, 0);
    1068:	82 e0       	ldi	r24, 0x02	; 2
    106a:	61 e0       	ldi	r22, 0x01	; 1
    106c:	42 e0       	ldi	r20, 0x02	; 2
    106e:	22 e0       	ldi	r18, 0x02	; 2
    1070:	00 e0       	ldi	r16, 0x00	; 0
    1072:	10 e0       	ldi	r17, 0x00	; 0
    1074:	0e 94 80 0f 	call	0x1f00	; 0x1f00 <WS2811_RotateGroup>
WS2811_RotateGroup(Group3, 1, Rechts, Neen, 0);
    1078:	83 e0       	ldi	r24, 0x03	; 3
    107a:	61 e0       	ldi	r22, 0x01	; 1
    107c:	42 e0       	ldi	r20, 0x02	; 2
    107e:	22 e0       	ldi	r18, 0x02	; 2
    1080:	0e 94 80 0f 	call	0x1f00	; 0x1f00 <WS2811_RotateGroup>
WS2811_RotateGroup(Group4, 1, Rechts, Neen, 0);
    1084:	84 e0       	ldi	r24, 0x04	; 4
    1086:	61 e0       	ldi	r22, 0x01	; 1
    1088:	42 e0       	ldi	r20, 0x02	; 2
    108a:	22 e0       	ldi	r18, 0x02	; 2
    108c:	0e 94 80 0f 	call	0x1f00	; 0x1f00 <WS2811_RotateGroup>
WS2801_Set_Delay_Update(Intensity, 446-ROTATE_DELAYM, LS_DELAY_1, Ja); //446
    1090:	85 e0       	ldi	r24, 0x05	; 5
    1092:	41 e9       	ldi	r20, 0x91	; 145
    1094:	51 e0       	ldi	r21, 0x01	; 1
    1096:	60 e0       	ldi	r22, 0x00	; 0
    1098:	70 e0       	ldi	r23, 0x00	; 0
    109a:	0a ef       	ldi	r16, 0xFA	; 250
    109c:	10 e0       	ldi	r17, 0x00	; 0
    109e:	20 e0       	ldi	r18, 0x00	; 0
    10a0:	30 e0       	ldi	r19, 0x00	; 0
    10a2:	0e 94 e5 01 	call	0x3ca	; 0x3ca <WS2801_Set_Delay_Update>
WS2811_RotateGroup(Group2, 1, Rechts, Neen, 0);
    10a6:	82 e0       	ldi	r24, 0x02	; 2
    10a8:	61 e0       	ldi	r22, 0x01	; 1
    10aa:	42 e0       	ldi	r20, 0x02	; 2
    10ac:	22 e0       	ldi	r18, 0x02	; 2
    10ae:	00 e0       	ldi	r16, 0x00	; 0
    10b0:	10 e0       	ldi	r17, 0x00	; 0
    10b2:	0e 94 80 0f 	call	0x1f00	; 0x1f00 <WS2811_RotateGroup>
WS2811_RotateGroup(Group3, 1, Rechts, Neen, 0);
    10b6:	83 e0       	ldi	r24, 0x03	; 3
    10b8:	61 e0       	ldi	r22, 0x01	; 1
    10ba:	42 e0       	ldi	r20, 0x02	; 2
    10bc:	22 e0       	ldi	r18, 0x02	; 2
    10be:	0e 94 80 0f 	call	0x1f00	; 0x1f00 <WS2811_RotateGroup>
WS2811_RotateGroup(Group4, 1, Rechts, Neen, 0);
    10c2:	84 e0       	ldi	r24, 0x04	; 4
    10c4:	61 e0       	ldi	r22, 0x01	; 1
    10c6:	42 e0       	ldi	r20, 0x02	; 2
    10c8:	22 e0       	ldi	r18, 0x02	; 2
    10ca:	0e 94 80 0f 	call	0x1f00	; 0x1f00 <WS2811_RotateGroup>
WS2801_Set_Delay_Update(Intensity, 391-ROTATE_DELAYM, LS_DELAY_1, Ja); //391
    10ce:	85 e0       	ldi	r24, 0x05	; 5
    10d0:	4a e5       	ldi	r20, 0x5A	; 90
    10d2:	51 e0       	ldi	r21, 0x01	; 1
    10d4:	60 e0       	ldi	r22, 0x00	; 0
    10d6:	70 e0       	ldi	r23, 0x00	; 0
    10d8:	0a ef       	ldi	r16, 0xFA	; 250
    10da:	10 e0       	ldi	r17, 0x00	; 0
    10dc:	20 e0       	ldi	r18, 0x00	; 0
    10de:	30 e0       	ldi	r19, 0x00	; 0
    10e0:	0e 94 e5 01 	call	0x3ca	; 0x3ca <WS2801_Set_Delay_Update>
WS2811_RotateGroup(Group2, 1, Rechts, Neen, 0);
    10e4:	82 e0       	ldi	r24, 0x02	; 2
    10e6:	61 e0       	ldi	r22, 0x01	; 1
    10e8:	42 e0       	ldi	r20, 0x02	; 2
    10ea:	22 e0       	ldi	r18, 0x02	; 2
    10ec:	00 e0       	ldi	r16, 0x00	; 0
    10ee:	10 e0       	ldi	r17, 0x00	; 0
    10f0:	0e 94 80 0f 	call	0x1f00	; 0x1f00 <WS2811_RotateGroup>
WS2811_RotateGroup(Group3, 1, Rechts, Neen, 0);
    10f4:	83 e0       	ldi	r24, 0x03	; 3
    10f6:	61 e0       	ldi	r22, 0x01	; 1
    10f8:	42 e0       	ldi	r20, 0x02	; 2
    10fa:	22 e0       	ldi	r18, 0x02	; 2
    10fc:	0e 94 80 0f 	call	0x1f00	; 0x1f00 <WS2811_RotateGroup>
WS2811_RotateGroup(Group4, 1, Rechts, Neen, 0);
    1100:	84 e0       	ldi	r24, 0x04	; 4
    1102:	61 e0       	ldi	r22, 0x01	; 1
    1104:	42 e0       	ldi	r20, 0x02	; 2
    1106:	22 e0       	ldi	r18, 0x02	; 2
    1108:	0e 94 80 0f 	call	0x1f00	; 0x1f00 <WS2811_RotateGroup>
WS2801_Set_Delay_Update(Intensity, 276-ROTATE_DELAYM, LS_DELAY_1, Ja); //276
    110c:	85 e0       	ldi	r24, 0x05	; 5
    110e:	47 ee       	ldi	r20, 0xE7	; 231
    1110:	50 e0       	ldi	r21, 0x00	; 0
    1112:	60 e0       	ldi	r22, 0x00	; 0
    1114:	70 e0       	ldi	r23, 0x00	; 0
    1116:	0a ef       	ldi	r16, 0xFA	; 250
    1118:	10 e0       	ldi	r17, 0x00	; 0
    111a:	20 e0       	ldi	r18, 0x00	; 0
    111c:	30 e0       	ldi	r19, 0x00	; 0
    111e:	0e 94 e5 01 	call	0x3ca	; 0x3ca <WS2801_Set_Delay_Update>
WS2811_RotateGroup(Group2, 1, Rechts, Neen, 0);
    1122:	82 e0       	ldi	r24, 0x02	; 2
    1124:	61 e0       	ldi	r22, 0x01	; 1
    1126:	42 e0       	ldi	r20, 0x02	; 2
    1128:	22 e0       	ldi	r18, 0x02	; 2
    112a:	00 e0       	ldi	r16, 0x00	; 0
    112c:	10 e0       	ldi	r17, 0x00	; 0
    112e:	0e 94 80 0f 	call	0x1f00	; 0x1f00 <WS2811_RotateGroup>
WS2811_RotateGroup(Group3, 1, Rechts, Neen, 0);
    1132:	83 e0       	ldi	r24, 0x03	; 3
    1134:	61 e0       	ldi	r22, 0x01	; 1
    1136:	42 e0       	ldi	r20, 0x02	; 2
    1138:	22 e0       	ldi	r18, 0x02	; 2
    113a:	0e 94 80 0f 	call	0x1f00	; 0x1f00 <WS2811_RotateGroup>
WS2811_RotateGroup(Group4, 1, Rechts, Neen, 0);
    113e:	84 e0       	ldi	r24, 0x04	; 4
    1140:	61 e0       	ldi	r22, 0x01	; 1
    1142:	42 e0       	ldi	r20, 0x02	; 2
    1144:	22 e0       	ldi	r18, 0x02	; 2
    1146:	0e 94 80 0f 	call	0x1f00	; 0x1f00 <WS2811_RotateGroup>
WS2801_Set_Delay_Update(Intensity, 409-ROTATE_DELAYM, LS_DELAY_1, Ja); //409
    114a:	85 e0       	ldi	r24, 0x05	; 5
    114c:	4c e6       	ldi	r20, 0x6C	; 108
    114e:	51 e0       	ldi	r21, 0x01	; 1
    1150:	60 e0       	ldi	r22, 0x00	; 0
    1152:	70 e0       	ldi	r23, 0x00	; 0
    1154:	0a ef       	ldi	r16, 0xFA	; 250
    1156:	10 e0       	ldi	r17, 0x00	; 0
    1158:	20 e0       	ldi	r18, 0x00	; 0
    115a:	30 e0       	ldi	r19, 0x00	; 0
    115c:	0e 94 e5 01 	call	0x3ca	; 0x3ca <WS2801_Set_Delay_Update>
WS2811_RotateGroup(Group2, 1, Rechts, Neen, 0);
    1160:	82 e0       	ldi	r24, 0x02	; 2
    1162:	61 e0       	ldi	r22, 0x01	; 1
    1164:	42 e0       	ldi	r20, 0x02	; 2
    1166:	22 e0       	ldi	r18, 0x02	; 2
    1168:	00 e0       	ldi	r16, 0x00	; 0
    116a:	10 e0       	ldi	r17, 0x00	; 0
    116c:	0e 94 80 0f 	call	0x1f00	; 0x1f00 <WS2811_RotateGroup>
WS2811_RotateGroup(Group3, 1, Rechts, Neen, 0);
    1170:	83 e0       	ldi	r24, 0x03	; 3
    1172:	61 e0       	ldi	r22, 0x01	; 1
    1174:	42 e0       	ldi	r20, 0x02	; 2
    1176:	22 e0       	ldi	r18, 0x02	; 2
    1178:	0e 94 80 0f 	call	0x1f00	; 0x1f00 <WS2811_RotateGroup>
WS2811_RotateGroup(Group4, 1, Rechts, Neen, 0);
    117c:	84 e0       	ldi	r24, 0x04	; 4
    117e:	61 e0       	ldi	r22, 0x01	; 1
    1180:	42 e0       	ldi	r20, 0x02	; 2
    1182:	22 e0       	ldi	r18, 0x02	; 2
    1184:	0e 94 80 0f 	call	0x1f00	; 0x1f00 <WS2811_RotateGroup>
WS2801_Set_Delay_Update(Intensity, 387-ROTATE_DELAYM, LS_DELAY_1, Ja); //387
    1188:	85 e0       	ldi	r24, 0x05	; 5
    118a:	46 e5       	ldi	r20, 0x56	; 86
    118c:	51 e0       	ldi	r21, 0x01	; 1
    118e:	60 e0       	ldi	r22, 0x00	; 0
    1190:	70 e0       	ldi	r23, 0x00	; 0
    1192:	0a ef       	ldi	r16, 0xFA	; 250
    1194:	10 e0       	ldi	r17, 0x00	; 0
    1196:	20 e0       	ldi	r18, 0x00	; 0
    1198:	30 e0       	ldi	r19, 0x00	; 0
    119a:	0e 94 e5 01 	call	0x3ca	; 0x3ca <WS2801_Set_Delay_Update>
WS2811_RotateGroup(Group2, 1, Rechts, Neen, 0);
    119e:	82 e0       	ldi	r24, 0x02	; 2
    11a0:	61 e0       	ldi	r22, 0x01	; 1
    11a2:	42 e0       	ldi	r20, 0x02	; 2
    11a4:	22 e0       	ldi	r18, 0x02	; 2
    11a6:	00 e0       	ldi	r16, 0x00	; 0
    11a8:	10 e0       	ldi	r17, 0x00	; 0
    11aa:	0e 94 80 0f 	call	0x1f00	; 0x1f00 <WS2811_RotateGroup>
WS2811_RotateGroup(Group3, 1, Rechts, Neen, 0);
    11ae:	83 e0       	ldi	r24, 0x03	; 3
    11b0:	61 e0       	ldi	r22, 0x01	; 1
    11b2:	42 e0       	ldi	r20, 0x02	; 2
    11b4:	22 e0       	ldi	r18, 0x02	; 2
    11b6:	0e 94 80 0f 	call	0x1f00	; 0x1f00 <WS2811_RotateGroup>
WS2811_RotateGroup(Group4, 1, Rechts, Neen, 0);
    11ba:	84 e0       	ldi	r24, 0x04	; 4
    11bc:	61 e0       	ldi	r22, 0x01	; 1
    11be:	42 e0       	ldi	r20, 0x02	; 2
    11c0:	22 e0       	ldi	r18, 0x02	; 2
    11c2:	0e 94 80 0f 	call	0x1f00	; 0x1f00 <WS2811_RotateGroup>
WS2801_Set_Delay_Update(Intensity, 276-ROTATE_DELAYM, LS_DELAY_1, Ja); //276
    11c6:	85 e0       	ldi	r24, 0x05	; 5
    11c8:	47 ee       	ldi	r20, 0xE7	; 231
    11ca:	50 e0       	ldi	r21, 0x00	; 0
    11cc:	60 e0       	ldi	r22, 0x00	; 0
    11ce:	70 e0       	ldi	r23, 0x00	; 0
    11d0:	0a ef       	ldi	r16, 0xFA	; 250
    11d2:	10 e0       	ldi	r17, 0x00	; 0
    11d4:	20 e0       	ldi	r18, 0x00	; 0
    11d6:	30 e0       	ldi	r19, 0x00	; 0
    11d8:	0e 94 e5 01 	call	0x3ca	; 0x3ca <WS2801_Set_Delay_Update>
WS2811_RotateGroup(Group2, 1, Rechts, Neen, 0);
    11dc:	82 e0       	ldi	r24, 0x02	; 2
    11de:	61 e0       	ldi	r22, 0x01	; 1
    11e0:	42 e0       	ldi	r20, 0x02	; 2
    11e2:	22 e0       	ldi	r18, 0x02	; 2
    11e4:	00 e0       	ldi	r16, 0x00	; 0
    11e6:	10 e0       	ldi	r17, 0x00	; 0
    11e8:	0e 94 80 0f 	call	0x1f00	; 0x1f00 <WS2811_RotateGroup>
WS2811_RotateGroup(Group3, 1, Rechts, Neen, 0);
    11ec:	83 e0       	ldi	r24, 0x03	; 3
    11ee:	61 e0       	ldi	r22, 0x01	; 1
    11f0:	42 e0       	ldi	r20, 0x02	; 2
    11f2:	22 e0       	ldi	r18, 0x02	; 2
    11f4:	0e 94 80 0f 	call	0x1f00	; 0x1f00 <WS2811_RotateGroup>
WS2811_RotateGroup(Group4, 1, Rechts, Neen, 0);
    11f8:	84 e0       	ldi	r24, 0x04	; 4
    11fa:	61 e0       	ldi	r22, 0x01	; 1
    11fc:	42 e0       	ldi	r20, 0x02	; 2
    11fe:	22 e0       	ldi	r18, 0x02	; 2
    1200:	0e 94 80 0f 	call	0x1f00	; 0x1f00 <WS2811_RotateGroup>
WS2801_Set_Delay_Update(Intensity, 414-ROTATE_DELAYM, LS_DELAY_1, Ja); //414
    1204:	85 e0       	ldi	r24, 0x05	; 5
    1206:	41 e7       	ldi	r20, 0x71	; 113
    1208:	51 e0       	ldi	r21, 0x01	; 1
    120a:	60 e0       	ldi	r22, 0x00	; 0
    120c:	70 e0       	ldi	r23, 0x00	; 0
    120e:	0a ef       	ldi	r16, 0xFA	; 250
    1210:	10 e0       	ldi	r17, 0x00	; 0
    1212:	20 e0       	ldi	r18, 0x00	; 0
    1214:	30 e0       	ldi	r19, 0x00	; 0
    1216:	0e 94 e5 01 	call	0x3ca	; 0x3ca <WS2801_Set_Delay_Update>
WS2811_RotateGroup(Group2, 1, Rechts, Neen, 0);
    121a:	82 e0       	ldi	r24, 0x02	; 2
    121c:	61 e0       	ldi	r22, 0x01	; 1
    121e:	42 e0       	ldi	r20, 0x02	; 2
    1220:	22 e0       	ldi	r18, 0x02	; 2
    1222:	00 e0       	ldi	r16, 0x00	; 0
    1224:	10 e0       	ldi	r17, 0x00	; 0
    1226:	0e 94 80 0f 	call	0x1f00	; 0x1f00 <WS2811_RotateGroup>
WS2811_RotateGroup(Group3, 1, Rechts, Neen, 0);
    122a:	83 e0       	ldi	r24, 0x03	; 3
    122c:	61 e0       	ldi	r22, 0x01	; 1
    122e:	42 e0       	ldi	r20, 0x02	; 2
    1230:	22 e0       	ldi	r18, 0x02	; 2
    1232:	0e 94 80 0f 	call	0x1f00	; 0x1f00 <WS2811_RotateGroup>
WS2811_RotateGroup(Group4, 1, Rechts, Neen, 0);
    1236:	84 e0       	ldi	r24, 0x04	; 4
    1238:	61 e0       	ldi	r22, 0x01	; 1
    123a:	42 e0       	ldi	r20, 0x02	; 2
    123c:	22 e0       	ldi	r18, 0x02	; 2
    123e:	0e 94 80 0f 	call	0x1f00	; 0x1f00 <WS2811_RotateGroup>
WS2801_Set_Delay_Update(Intensity, 672-ROTATE_DELAYM, LS_DELAY_1, Ja); //672
    1242:	85 e0       	ldi	r24, 0x05	; 5
    1244:	43 e7       	ldi	r20, 0x73	; 115
    1246:	52 e0       	ldi	r21, 0x02	; 2
    1248:	60 e0       	ldi	r22, 0x00	; 0
    124a:	70 e0       	ldi	r23, 0x00	; 0
    124c:	0a ef       	ldi	r16, 0xFA	; 250
    124e:	10 e0       	ldi	r17, 0x00	; 0
    1250:	20 e0       	ldi	r18, 0x00	; 0
    1252:	30 e0       	ldi	r19, 0x00	; 0
    1254:	0e 94 e5 01 	call	0x3ca	; 0x3ca <WS2801_Set_Delay_Update>

WS2801_Set_Delay_Update(Intensity, 455, LS_DELAY_1, Ja); //455
    1258:	85 e0       	ldi	r24, 0x05	; 5
    125a:	47 ec       	ldi	r20, 0xC7	; 199
    125c:	51 e0       	ldi	r21, 0x01	; 1
    125e:	60 e0       	ldi	r22, 0x00	; 0
    1260:	70 e0       	ldi	r23, 0x00	; 0
    1262:	0a ef       	ldi	r16, 0xFA	; 250
    1264:	10 e0       	ldi	r17, 0x00	; 0
    1266:	20 e0       	ldi	r18, 0x00	; 0
    1268:	30 e0       	ldi	r19, 0x00	; 0
    126a:	0e 94 e5 01 	call	0x3ca	; 0x3ca <WS2801_Set_Delay_Update>
WS2801_Set_Delay_Update(Intensity, 644, LS_DELAY_1, Ja); //644
    126e:	85 e0       	ldi	r24, 0x05	; 5
    1270:	44 e8       	ldi	r20, 0x84	; 132
    1272:	52 e0       	ldi	r21, 0x02	; 2
    1274:	60 e0       	ldi	r22, 0x00	; 0
    1276:	70 e0       	ldi	r23, 0x00	; 0
    1278:	0a ef       	ldi	r16, 0xFA	; 250
    127a:	10 e0       	ldi	r17, 0x00	; 0
    127c:	20 e0       	ldi	r18, 0x00	; 0
    127e:	30 e0       	ldi	r19, 0x00	; 0
    1280:	0e 94 e5 01 	call	0x3ca	; 0x3ca <WS2801_Set_Delay_Update>
WS2801_Set_Delay_Update(Intensity, 419, LS_DELAY_1, Ja); //419
    1284:	85 e0       	ldi	r24, 0x05	; 5
    1286:	43 ea       	ldi	r20, 0xA3	; 163
    1288:	51 e0       	ldi	r21, 0x01	; 1
    128a:	60 e0       	ldi	r22, 0x00	; 0
    128c:	70 e0       	ldi	r23, 0x00	; 0
    128e:	0a ef       	ldi	r16, 0xFA	; 250
    1290:	10 e0       	ldi	r17, 0x00	; 0
    1292:	20 e0       	ldi	r18, 0x00	; 0
    1294:	30 e0       	ldi	r19, 0x00	; 0
    1296:	0e 94 e5 01 	call	0x3ca	; 0x3ca <WS2801_Set_Delay_Update>
WS2801_Set_Delay_Update(Intensity, 386, LS_DELAY_1, Ja); //386
    129a:	85 e0       	ldi	r24, 0x05	; 5
    129c:	42 e8       	ldi	r20, 0x82	; 130
    129e:	51 e0       	ldi	r21, 0x01	; 1
    12a0:	60 e0       	ldi	r22, 0x00	; 0
    12a2:	70 e0       	ldi	r23, 0x00	; 0
    12a4:	0a ef       	ldi	r16, 0xFA	; 250
    12a6:	10 e0       	ldi	r17, 0x00	; 0
    12a8:	20 e0       	ldi	r18, 0x00	; 0
    12aa:	30 e0       	ldi	r19, 0x00	; 0
    12ac:	0e 94 e5 01 	call	0x3ca	; 0x3ca <WS2801_Set_Delay_Update>
WS2801_Set_Delay_Update(Intensity, 258, LS_DELAY_1, Ja); //258
    12b0:	85 e0       	ldi	r24, 0x05	; 5
    12b2:	42 e0       	ldi	r20, 0x02	; 2
    12b4:	51 e0       	ldi	r21, 0x01	; 1
    12b6:	60 e0       	ldi	r22, 0x00	; 0
    12b8:	70 e0       	ldi	r23, 0x00	; 0
    12ba:	0a ef       	ldi	r16, 0xFA	; 250
    12bc:	10 e0       	ldi	r17, 0x00	; 0
    12be:	20 e0       	ldi	r18, 0x00	; 0
    12c0:	30 e0       	ldi	r19, 0x00	; 0
    12c2:	0e 94 e5 01 	call	0x3ca	; 0x3ca <WS2801_Set_Delay_Update>
WS2801_Set_Delay_Update(Intensity, 423, LS_DELAY_1, Ja); //423
    12c6:	85 e0       	ldi	r24, 0x05	; 5
    12c8:	47 ea       	ldi	r20, 0xA7	; 167
    12ca:	51 e0       	ldi	r21, 0x01	; 1
    12cc:	60 e0       	ldi	r22, 0x00	; 0
    12ce:	70 e0       	ldi	r23, 0x00	; 0
    12d0:	0a ef       	ldi	r16, 0xFA	; 250
    12d2:	10 e0       	ldi	r17, 0x00	; 0
    12d4:	20 e0       	ldi	r18, 0x00	; 0
    12d6:	30 e0       	ldi	r19, 0x00	; 0
    12d8:	0e 94 e5 01 	call	0x3ca	; 0x3ca <WS2801_Set_Delay_Update>
WS2801_Set_Delay_Update(Intensity, 396, LS_DELAY_1, Ja); //396
    12dc:	85 e0       	ldi	r24, 0x05	; 5
    12de:	4c e8       	ldi	r20, 0x8C	; 140
    12e0:	51 e0       	ldi	r21, 0x01	; 1
    12e2:	60 e0       	ldi	r22, 0x00	; 0
    12e4:	70 e0       	ldi	r23, 0x00	; 0
    12e6:	0a ef       	ldi	r16, 0xFA	; 250
    12e8:	10 e0       	ldi	r17, 0x00	; 0
    12ea:	20 e0       	ldi	r18, 0x00	; 0
    12ec:	30 e0       	ldi	r19, 0x00	; 0
    12ee:	0e 94 e5 01 	call	0x3ca	; 0x3ca <WS2801_Set_Delay_Update>
WS2801_Set_Delay_Update(Intensity, 281, LS_DELAY_1, Ja); //281
    12f2:	85 e0       	ldi	r24, 0x05	; 5
    12f4:	49 e1       	ldi	r20, 0x19	; 25
    12f6:	51 e0       	ldi	r21, 0x01	; 1
    12f8:	60 e0       	ldi	r22, 0x00	; 0
    12fa:	70 e0       	ldi	r23, 0x00	; 0
    12fc:	0a ef       	ldi	r16, 0xFA	; 250
    12fe:	10 e0       	ldi	r17, 0x00	; 0
    1300:	20 e0       	ldi	r18, 0x00	; 0
    1302:	30 e0       	ldi	r19, 0x00	; 0
    1304:	0e 94 e5 01 	call	0x3ca	; 0x3ca <WS2801_Set_Delay_Update>
WS2801_Set_Delay_Update(Intensity, 432, LS_DELAY_1, Ja); //432 -
    1308:	85 e0       	ldi	r24, 0x05	; 5
    130a:	40 eb       	ldi	r20, 0xB0	; 176
    130c:	51 e0       	ldi	r21, 0x01	; 1
    130e:	60 e0       	ldi	r22, 0x00	; 0
    1310:	70 e0       	ldi	r23, 0x00	; 0
    1312:	0a ef       	ldi	r16, 0xFA	; 250
    1314:	10 e0       	ldi	r17, 0x00	; 0
    1316:	20 e0       	ldi	r18, 0x00	; 0
    1318:	30 e0       	ldi	r19, 0x00	; 0
    131a:	0e 94 e5 01 	call	0x3ca	; 0x3ca <WS2801_Set_Delay_Update>
WS2801_Set_Delay_Update(Intensity, 635, LS_DELAY_1, Ja); //635
    131e:	85 e0       	ldi	r24, 0x05	; 5
    1320:	4b e7       	ldi	r20, 0x7B	; 123
    1322:	52 e0       	ldi	r21, 0x02	; 2
    1324:	60 e0       	ldi	r22, 0x00	; 0
    1326:	70 e0       	ldi	r23, 0x00	; 0
    1328:	0a ef       	ldi	r16, 0xFA	; 250
    132a:	10 e0       	ldi	r17, 0x00	; 0
    132c:	20 e0       	ldi	r18, 0x00	; 0
    132e:	30 e0       	ldi	r19, 0x00	; 0
    1330:	0e 94 e5 01 	call	0x3ca	; 0x3ca <WS2801_Set_Delay_Update>

WS2801_Set_Delay_Update(Intensity, 469, LS_DELAY_1, Ja); //469
    1334:	85 e0       	ldi	r24, 0x05	; 5
    1336:	45 ed       	ldi	r20, 0xD5	; 213
    1338:	51 e0       	ldi	r21, 0x01	; 1
    133a:	60 e0       	ldi	r22, 0x00	; 0
    133c:	70 e0       	ldi	r23, 0x00	; 0
    133e:	0a ef       	ldi	r16, 0xFA	; 250
    1340:	10 e0       	ldi	r17, 0x00	; 0
    1342:	20 e0       	ldi	r18, 0x00	; 0
    1344:	30 e0       	ldi	r19, 0x00	; 0
    1346:	0e 94 e5 01 	call	0x3ca	; 0x3ca <WS2801_Set_Delay_Update>
WS2801_Set_Delay_Update(Intensity, 400, LS_DELAY_1, Ja); //400
    134a:	85 e0       	ldi	r24, 0x05	; 5
    134c:	40 e9       	ldi	r20, 0x90	; 144
    134e:	51 e0       	ldi	r21, 0x01	; 1
    1350:	60 e0       	ldi	r22, 0x00	; 0
    1352:	70 e0       	ldi	r23, 0x00	; 0
    1354:	0a ef       	ldi	r16, 0xFA	; 250
    1356:	10 e0       	ldi	r17, 0x00	; 0
    1358:	20 e0       	ldi	r18, 0x00	; 0
    135a:	30 e0       	ldi	r19, 0x00	; 0
    135c:	0e 94 e5 01 	call	0x3ca	; 0x3ca <WS2801_Set_Delay_Update>
WS2801_Set_Delay_Update(Intensity, 276, LS_DELAY_1, Ja); //276
    1360:	85 e0       	ldi	r24, 0x05	; 5
    1362:	44 e1       	ldi	r20, 0x14	; 20
    1364:	51 e0       	ldi	r21, 0x01	; 1
    1366:	60 e0       	ldi	r22, 0x00	; 0
    1368:	70 e0       	ldi	r23, 0x00	; 0
    136a:	0a ef       	ldi	r16, 0xFA	; 250
    136c:	10 e0       	ldi	r17, 0x00	; 0
    136e:	20 e0       	ldi	r18, 0x00	; 0
    1370:	30 e0       	ldi	r19, 0x00	; 0
    1372:	0e 94 e5 01 	call	0x3ca	; 0x3ca <WS2801_Set_Delay_Update>

WS2801_Set_Delay_Update(Intensity, 401, LS_DELAY_1, Ja); //401 - Hard stuk tot einde climax
    1376:	85 e0       	ldi	r24, 0x05	; 5
    1378:	41 e9       	ldi	r20, 0x91	; 145
    137a:	51 e0       	ldi	r21, 0x01	; 1
    137c:	60 e0       	ldi	r22, 0x00	; 0
    137e:	70 e0       	ldi	r23, 0x00	; 0
    1380:	0a ef       	ldi	r16, 0xFA	; 250
    1382:	10 e0       	ldi	r17, 0x00	; 0
    1384:	20 e0       	ldi	r18, 0x00	; 0
    1386:	30 e0       	ldi	r19, 0x00	; 0
    1388:	0e 94 e5 01 	call	0x3ca	; 0x3ca <WS2801_Set_Delay_Update>
WS2801_Set_Delay_Update(Intensity, 368, LS_DELAY_1, Ja); //368
    138c:	85 e0       	ldi	r24, 0x05	; 5
    138e:	40 e7       	ldi	r20, 0x70	; 112
    1390:	51 e0       	ldi	r21, 0x01	; 1
    1392:	60 e0       	ldi	r22, 0x00	; 0
    1394:	70 e0       	ldi	r23, 0x00	; 0
    1396:	0a ef       	ldi	r16, 0xFA	; 250
    1398:	10 e0       	ldi	r17, 0x00	; 0
    139a:	20 e0       	ldi	r18, 0x00	; 0
    139c:	30 e0       	ldi	r19, 0x00	; 0
    139e:	0e 94 e5 01 	call	0x3ca	; 0x3ca <WS2801_Set_Delay_Update>
WS2801_Set_Delay_Update(Intensity, 317, LS_DELAY_1, Ja); //317
    13a2:	85 e0       	ldi	r24, 0x05	; 5
    13a4:	4d e3       	ldi	r20, 0x3D	; 61
    13a6:	51 e0       	ldi	r21, 0x01	; 1
    13a8:	60 e0       	ldi	r22, 0x00	; 0
    13aa:	70 e0       	ldi	r23, 0x00	; 0
    13ac:	0a ef       	ldi	r16, 0xFA	; 250
    13ae:	10 e0       	ldi	r17, 0x00	; 0
    13b0:	20 e0       	ldi	r18, 0x00	; 0
    13b2:	30 e0       	ldi	r19, 0x00	; 0
    13b4:	0e 94 e5 01 	call	0x3ca	; 0x3ca <WS2801_Set_Delay_Update>
WS2801_Set_Delay_Update(Intensity, 442, LS_DELAY_1, Ja); //442
    13b8:	85 e0       	ldi	r24, 0x05	; 5
    13ba:	4a eb       	ldi	r20, 0xBA	; 186
    13bc:	51 e0       	ldi	r21, 0x01	; 1
    13be:	60 e0       	ldi	r22, 0x00	; 0
    13c0:	70 e0       	ldi	r23, 0x00	; 0
    13c2:	0a ef       	ldi	r16, 0xFA	; 250
    13c4:	10 e0       	ldi	r17, 0x00	; 0
    13c6:	20 e0       	ldi	r18, 0x00	; 0
    13c8:	30 e0       	ldi	r19, 0x00	; 0
    13ca:	0e 94 e5 01 	call	0x3ca	; 0x3ca <WS2801_Set_Delay_Update>
WS2801_Set_Delay_Update(Intensity, 359, LS_DELAY_1, Ja); //359
    13ce:	85 e0       	ldi	r24, 0x05	; 5
    13d0:	47 e6       	ldi	r20, 0x67	; 103
    13d2:	51 e0       	ldi	r21, 0x01	; 1
    13d4:	60 e0       	ldi	r22, 0x00	; 0
    13d6:	70 e0       	ldi	r23, 0x00	; 0
    13d8:	0a ef       	ldi	r16, 0xFA	; 250
    13da:	10 e0       	ldi	r17, 0x00	; 0
    13dc:	20 e0       	ldi	r18, 0x00	; 0
    13de:	30 e0       	ldi	r19, 0x00	; 0
    13e0:	0e 94 e5 01 	call	0x3ca	; 0x3ca <WS2801_Set_Delay_Update>
WS2801_Set_Delay_Update(Intensity, 299, LS_DELAY_1, Ja); //299
    13e4:	85 e0       	ldi	r24, 0x05	; 5
    13e6:	4b e2       	ldi	r20, 0x2B	; 43
    13e8:	51 e0       	ldi	r21, 0x01	; 1
    13ea:	60 e0       	ldi	r22, 0x00	; 0
    13ec:	70 e0       	ldi	r23, 0x00	; 0
    13ee:	0a ef       	ldi	r16, 0xFA	; 250
    13f0:	10 e0       	ldi	r17, 0x00	; 0
    13f2:	20 e0       	ldi	r18, 0x00	; 0
    13f4:	30 e0       	ldi	r19, 0x00	; 0
    13f6:	0e 94 e5 01 	call	0x3ca	; 0x3ca <WS2801_Set_Delay_Update>
WS2801_Set_Delay_Update(Intensity, 837, LS_DELAY_1, Ja); //837
    13fa:	85 e0       	ldi	r24, 0x05	; 5
    13fc:	45 e4       	ldi	r20, 0x45	; 69
    13fe:	53 e0       	ldi	r21, 0x03	; 3
    1400:	60 e0       	ldi	r22, 0x00	; 0
    1402:	70 e0       	ldi	r23, 0x00	; 0
    1404:	0a ef       	ldi	r16, 0xFA	; 250
    1406:	10 e0       	ldi	r17, 0x00	; 0
    1408:	20 e0       	ldi	r18, 0x00	; 0
    140a:	30 e0       	ldi	r19, 0x00	; 0
    140c:	0e 94 e5 01 	call	0x3ca	; 0x3ca <WS2801_Set_Delay_Update>

WS2801_Set_Delay_Update(Intensity, 216, LS_DELAY_1, Ja); //216 - Einde climax
    1410:	85 e0       	ldi	r24, 0x05	; 5
    1412:	48 ed       	ldi	r20, 0xD8	; 216
    1414:	50 e0       	ldi	r21, 0x00	; 0
    1416:	60 e0       	ldi	r22, 0x00	; 0
    1418:	70 e0       	ldi	r23, 0x00	; 0
    141a:	0a ef       	ldi	r16, 0xFA	; 250
    141c:	10 e0       	ldi	r17, 0x00	; 0
    141e:	20 e0       	ldi	r18, 0x00	; 0
    1420:	30 e0       	ldi	r19, 0x00	; 0
    1422:	0e 94 e5 01 	call	0x3ca	; 0x3ca <WS2801_Set_Delay_Update>
WS2801_Set_Delay_Update(Intensity, 428, LS_DELAY_1, Ja); //428
    1426:	85 e0       	ldi	r24, 0x05	; 5
    1428:	4c ea       	ldi	r20, 0xAC	; 172
    142a:	51 e0       	ldi	r21, 0x01	; 1
    142c:	60 e0       	ldi	r22, 0x00	; 0
    142e:	70 e0       	ldi	r23, 0x00	; 0
    1430:	0a ef       	ldi	r16, 0xFA	; 250
    1432:	10 e0       	ldi	r17, 0x00	; 0
    1434:	20 e0       	ldi	r18, 0x00	; 0
    1436:	30 e0       	ldi	r19, 0x00	; 0
    1438:	0e 94 e5 01 	call	0x3ca	; 0x3ca <WS2801_Set_Delay_Update>
WS2801_Set_Delay_Update(Intensity, 433, LS_DELAY_1, Ja); //433
    143c:	85 e0       	ldi	r24, 0x05	; 5
    143e:	41 eb       	ldi	r20, 0xB1	; 177
    1440:	51 e0       	ldi	r21, 0x01	; 1
    1442:	60 e0       	ldi	r22, 0x00	; 0
    1444:	70 e0       	ldi	r23, 0x00	; 0
    1446:	0a ef       	ldi	r16, 0xFA	; 250
    1448:	10 e0       	ldi	r17, 0x00	; 0
    144a:	20 e0       	ldi	r18, 0x00	; 0
    144c:	30 e0       	ldi	r19, 0x00	; 0
    144e:	0e 94 e5 01 	call	0x3ca	; 0x3ca <WS2801_Set_Delay_Update>
WS2801_Set_Delay_Update(Intensity, 294, LS_DELAY_1, Ja); //294
    1452:	85 e0       	ldi	r24, 0x05	; 5
    1454:	46 e2       	ldi	r20, 0x26	; 38
    1456:	51 e0       	ldi	r21, 0x01	; 1
    1458:	60 e0       	ldi	r22, 0x00	; 0
    145a:	70 e0       	ldi	r23, 0x00	; 0
    145c:	0a ef       	ldi	r16, 0xFA	; 250
    145e:	10 e0       	ldi	r17, 0x00	; 0
    1460:	20 e0       	ldi	r18, 0x00	; 0
    1462:	30 e0       	ldi	r19, 0x00	; 0
    1464:	0e 94 e5 01 	call	0x3ca	; 0x3ca <WS2801_Set_Delay_Update>
WS2801_Set_Delay_Update(Intensity, 810, LS_DELAY_1, Ja); //810
    1468:	85 e0       	ldi	r24, 0x05	; 5
    146a:	4a e2       	ldi	r20, 0x2A	; 42
    146c:	53 e0       	ldi	r21, 0x03	; 3
    146e:	60 e0       	ldi	r22, 0x00	; 0
    1470:	70 e0       	ldi	r23, 0x00	; 0
    1472:	0a ef       	ldi	r16, 0xFA	; 250
    1474:	10 e0       	ldi	r17, 0x00	; 0
    1476:	20 e0       	ldi	r18, 0x00	; 0
    1478:	30 e0       	ldi	r19, 0x00	; 0
    147a:	0e 94 e5 01 	call	0x3ca	; 0x3ca <WS2801_Set_Delay_Update>

WS2801_Set_Delay_Update(Intensity, 299, LS_DELAY_1, Ja); //299
    147e:	85 e0       	ldi	r24, 0x05	; 5
    1480:	4b e2       	ldi	r20, 0x2B	; 43
    1482:	51 e0       	ldi	r21, 0x01	; 1
    1484:	60 e0       	ldi	r22, 0x00	; 0
    1486:	70 e0       	ldi	r23, 0x00	; 0
    1488:	0a ef       	ldi	r16, 0xFA	; 250
    148a:	10 e0       	ldi	r17, 0x00	; 0
    148c:	20 e0       	ldi	r18, 0x00	; 0
    148e:	30 e0       	ldi	r19, 0x00	; 0
    1490:	0e 94 e5 01 	call	0x3ca	; 0x3ca <WS2801_Set_Delay_Update>
WS2801_Set_Delay_Update(Intensity, 377, LS_DELAY_1, Ja); //377
    1494:	85 e0       	ldi	r24, 0x05	; 5
    1496:	49 e7       	ldi	r20, 0x79	; 121
    1498:	51 e0       	ldi	r21, 0x01	; 1
    149a:	60 e0       	ldi	r22, 0x00	; 0
    149c:	70 e0       	ldi	r23, 0x00	; 0
    149e:	0a ef       	ldi	r16, 0xFA	; 250
    14a0:	10 e0       	ldi	r17, 0x00	; 0
    14a2:	20 e0       	ldi	r18, 0x00	; 0
    14a4:	30 e0       	ldi	r19, 0x00	; 0
    14a6:	0e 94 e5 01 	call	0x3ca	; 0x3ca <WS2801_Set_Delay_Update>
WS2801_Set_Delay_Update(Intensity, 405, LS_DELAY_1, Ja); //405
    14aa:	85 e0       	ldi	r24, 0x05	; 5
    14ac:	45 e9       	ldi	r20, 0x95	; 149
    14ae:	51 e0       	ldi	r21, 0x01	; 1
    14b0:	60 e0       	ldi	r22, 0x00	; 0
    14b2:	70 e0       	ldi	r23, 0x00	; 0
    14b4:	0a ef       	ldi	r16, 0xFA	; 250
    14b6:	10 e0       	ldi	r17, 0x00	; 0
    14b8:	20 e0       	ldi	r18, 0x00	; 0
    14ba:	30 e0       	ldi	r19, 0x00	; 0
    14bc:	0e 94 e5 01 	call	0x3ca	; 0x3ca <WS2801_Set_Delay_Update>
WS2801_Set_Delay_Update(Intensity, 313, LS_DELAY_1, Ja); //313
    14c0:	85 e0       	ldi	r24, 0x05	; 5
    14c2:	49 e3       	ldi	r20, 0x39	; 57
    14c4:	51 e0       	ldi	r21, 0x01	; 1
    14c6:	60 e0       	ldi	r22, 0x00	; 0
    14c8:	70 e0       	ldi	r23, 0x00	; 0
    14ca:	0a ef       	ldi	r16, 0xFA	; 250
    14cc:	10 e0       	ldi	r17, 0x00	; 0
    14ce:	20 e0       	ldi	r18, 0x00	; 0
    14d0:	30 e0       	ldi	r19, 0x00	; 0
    14d2:	0e 94 e5 01 	call	0x3ca	; 0x3ca <WS2801_Set_Delay_Update>
WS2801_Set_Delay_Update(Intensity, 1044, LS_DELAY_1, Ja); //1044
    14d6:	85 e0       	ldi	r24, 0x05	; 5
    14d8:	44 e1       	ldi	r20, 0x14	; 20
    14da:	54 e0       	ldi	r21, 0x04	; 4
    14dc:	60 e0       	ldi	r22, 0x00	; 0
    14de:	70 e0       	ldi	r23, 0x00	; 0
    14e0:	0a ef       	ldi	r16, 0xFA	; 250
    14e2:	10 e0       	ldi	r17, 0x00	; 0
    14e4:	20 e0       	ldi	r18, 0x00	; 0
    14e6:	30 e0       	ldi	r19, 0x00	; 0
    14e8:	0e 94 e5 01 	call	0x3ca	; 0x3ca <WS2801_Set_Delay_Update>

WS2801_Set_Delay_Update(Intensity, 401, LS_DELAY_1, Ja); //401
    14ec:	85 e0       	ldi	r24, 0x05	; 5
    14ee:	41 e9       	ldi	r20, 0x91	; 145
    14f0:	51 e0       	ldi	r21, 0x01	; 1
    14f2:	60 e0       	ldi	r22, 0x00	; 0
    14f4:	70 e0       	ldi	r23, 0x00	; 0
    14f6:	0a ef       	ldi	r16, 0xFA	; 250
    14f8:	10 e0       	ldi	r17, 0x00	; 0
    14fa:	20 e0       	ldi	r18, 0x00	; 0
    14fc:	30 e0       	ldi	r19, 0x00	; 0
    14fe:	0e 94 e5 01 	call	0x3ca	; 0x3ca <WS2801_Set_Delay_Update>
WS2801_Set_Delay_Update(Intensity, 414, LS_DELAY_1, Ja); //414
    1502:	85 e0       	ldi	r24, 0x05	; 5
    1504:	4e e9       	ldi	r20, 0x9E	; 158
    1506:	51 e0       	ldi	r21, 0x01	; 1
    1508:	60 e0       	ldi	r22, 0x00	; 0
    150a:	70 e0       	ldi	r23, 0x00	; 0
    150c:	0a ef       	ldi	r16, 0xFA	; 250
    150e:	10 e0       	ldi	r17, 0x00	; 0
    1510:	20 e0       	ldi	r18, 0x00	; 0
    1512:	30 e0       	ldi	r19, 0x00	; 0
    1514:	0e 94 e5 01 	call	0x3ca	; 0x3ca <WS2801_Set_Delay_Update>
WS2801_Set_Delay_Update(Intensity, 303, LS_DELAY_1, Ja); //303
    1518:	85 e0       	ldi	r24, 0x05	; 5
    151a:	4f e2       	ldi	r20, 0x2F	; 47
    151c:	51 e0       	ldi	r21, 0x01	; 1
    151e:	60 e0       	ldi	r22, 0x00	; 0
    1520:	70 e0       	ldi	r23, 0x00	; 0
    1522:	0a ef       	ldi	r16, 0xFA	; 250
    1524:	10 e0       	ldi	r17, 0x00	; 0
    1526:	20 e0       	ldi	r18, 0x00	; 0
    1528:	30 e0       	ldi	r19, 0x00	; 0
    152a:	0e 94 e5 01 	call	0x3ca	; 0x3ca <WS2801_Set_Delay_Update>
WS2801_Set_Delay_Update(Intensity, 801, LS_DELAY_1, Ja); //801
    152e:	85 e0       	ldi	r24, 0x05	; 5
    1530:	41 e2       	ldi	r20, 0x21	; 33
    1532:	53 e0       	ldi	r21, 0x03	; 3
    1534:	60 e0       	ldi	r22, 0x00	; 0
    1536:	70 e0       	ldi	r23, 0x00	; 0
    1538:	0a ef       	ldi	r16, 0xFA	; 250
    153a:	10 e0       	ldi	r17, 0x00	; 0
    153c:	20 e0       	ldi	r18, 0x00	; 0
    153e:	30 e0       	ldi	r19, 0x00	; 0
    1540:	0e 94 e5 01 	call	0x3ca	; 0x3ca <WS2801_Set_Delay_Update>

WS2801_Set_Delay_Update(Intensity, 308, LS_DELAY_1, Ja); //308
    1544:	85 e0       	ldi	r24, 0x05	; 5
    1546:	44 e3       	ldi	r20, 0x34	; 52
    1548:	51 e0       	ldi	r21, 0x01	; 1
    154a:	60 e0       	ldi	r22, 0x00	; 0
    154c:	70 e0       	ldi	r23, 0x00	; 0
    154e:	0a ef       	ldi	r16, 0xFA	; 250
    1550:	10 e0       	ldi	r17, 0x00	; 0
    1552:	20 e0       	ldi	r18, 0x00	; 0
    1554:	30 e0       	ldi	r19, 0x00	; 0
    1556:	0e 94 e5 01 	call	0x3ca	; 0x3ca <WS2801_Set_Delay_Update>
WS2801_Set_Delay_Update(Intensity, 396, LS_DELAY_1, Ja); //396
    155a:	85 e0       	ldi	r24, 0x05	; 5
    155c:	4c e8       	ldi	r20, 0x8C	; 140
    155e:	51 e0       	ldi	r21, 0x01	; 1
    1560:	60 e0       	ldi	r22, 0x00	; 0
    1562:	70 e0       	ldi	r23, 0x00	; 0
    1564:	0a ef       	ldi	r16, 0xFA	; 250
    1566:	10 e0       	ldi	r17, 0x00	; 0
    1568:	20 e0       	ldi	r18, 0x00	; 0
    156a:	30 e0       	ldi	r19, 0x00	; 0
    156c:	0e 94 e5 01 	call	0x3ca	; 0x3ca <WS2801_Set_Delay_Update>
WS2801_Set_Delay_Update(Intensity, 359, LS_DELAY_1, Ja); //359
    1570:	85 e0       	ldi	r24, 0x05	; 5
    1572:	47 e6       	ldi	r20, 0x67	; 103
    1574:	51 e0       	ldi	r21, 0x01	; 1
    1576:	60 e0       	ldi	r22, 0x00	; 0
    1578:	70 e0       	ldi	r23, 0x00	; 0
    157a:	0a ef       	ldi	r16, 0xFA	; 250
    157c:	10 e0       	ldi	r17, 0x00	; 0
    157e:	20 e0       	ldi	r18, 0x00	; 0
    1580:	30 e0       	ldi	r19, 0x00	; 0
    1582:	0e 94 e5 01 	call	0x3ca	; 0x3ca <WS2801_Set_Delay_Update>
WS2801_Set_Delay_Update(Intensity, 1127+2240, LS_DELAY_1, Ja); //1127
    1586:	85 e0       	ldi	r24, 0x05	; 5
    1588:	47 e2       	ldi	r20, 0x27	; 39
    158a:	5d e0       	ldi	r21, 0x0D	; 13
    158c:	60 e0       	ldi	r22, 0x00	; 0
    158e:	70 e0       	ldi	r23, 0x00	; 0
    1590:	0a ef       	ldi	r16, 0xFA	; 250
    1592:	10 e0       	ldi	r17, 0x00	; 0
    1594:	20 e0       	ldi	r18, 0x00	; 0
    1596:	30 e0       	ldi	r19, 0x00	; 0
    1598:	0e 94 e5 01 	call	0x3ca	; 0x3ca <WS2801_Set_Delay_Update>
//WS2801_Set_Delay_Update(Intensity, 2240, LS_DELAY_1, Ja); //2240 - Polka stuk

WS2801_Set_Delay_Update(Intensity, 226, LS_DELAY_1, Ja); //226 - Harder stuk
    159c:	85 e0       	ldi	r24, 0x05	; 5
    159e:	42 ee       	ldi	r20, 0xE2	; 226
    15a0:	50 e0       	ldi	r21, 0x00	; 0
    15a2:	60 e0       	ldi	r22, 0x00	; 0
    15a4:	70 e0       	ldi	r23, 0x00	; 0
    15a6:	0a ef       	ldi	r16, 0xFA	; 250
    15a8:	10 e0       	ldi	r17, 0x00	; 0
    15aa:	20 e0       	ldi	r18, 0x00	; 0
    15ac:	30 e0       	ldi	r19, 0x00	; 0
    15ae:	0e 94 e5 01 	call	0x3ca	; 0x3ca <WS2801_Set_Delay_Update>
WS2801_Set_Delay_Update(Intensity, 340, LS_DELAY_1, Ja); //340
    15b2:	85 e0       	ldi	r24, 0x05	; 5
    15b4:	44 e5       	ldi	r20, 0x54	; 84
    15b6:	51 e0       	ldi	r21, 0x01	; 1
    15b8:	60 e0       	ldi	r22, 0x00	; 0
    15ba:	70 e0       	ldi	r23, 0x00	; 0
    15bc:	0a ef       	ldi	r16, 0xFA	; 250
    15be:	10 e0       	ldi	r17, 0x00	; 0
    15c0:	20 e0       	ldi	r18, 0x00	; 0
    15c2:	30 e0       	ldi	r19, 0x00	; 0
    15c4:	0e 94 e5 01 	call	0x3ca	; 0x3ca <WS2801_Set_Delay_Update>
WS2801_Set_Delay_Update(Intensity, 405, LS_DELAY_1, Ja); //405
    15c8:	85 e0       	ldi	r24, 0x05	; 5
    15ca:	45 e9       	ldi	r20, 0x95	; 149
    15cc:	51 e0       	ldi	r21, 0x01	; 1
    15ce:	60 e0       	ldi	r22, 0x00	; 0
    15d0:	70 e0       	ldi	r23, 0x00	; 0
    15d2:	0a ef       	ldi	r16, 0xFA	; 250
    15d4:	10 e0       	ldi	r17, 0x00	; 0
    15d6:	20 e0       	ldi	r18, 0x00	; 0
    15d8:	30 e0       	ldi	r19, 0x00	; 0
    15da:	0e 94 e5 01 	call	0x3ca	; 0x3ca <WS2801_Set_Delay_Update>
WS2801_Set_Delay_Update(Intensity, 322, LS_DELAY_1, Ja); //322
    15de:	85 e0       	ldi	r24, 0x05	; 5
    15e0:	42 e4       	ldi	r20, 0x42	; 66
    15e2:	51 e0       	ldi	r21, 0x01	; 1
    15e4:	60 e0       	ldi	r22, 0x00	; 0
    15e6:	70 e0       	ldi	r23, 0x00	; 0
    15e8:	0a ef       	ldi	r16, 0xFA	; 250
    15ea:	10 e0       	ldi	r17, 0x00	; 0
    15ec:	20 e0       	ldi	r18, 0x00	; 0
    15ee:	30 e0       	ldi	r19, 0x00	; 0
    15f0:	0e 94 e5 01 	call	0x3ca	; 0x3ca <WS2801_Set_Delay_Update>
WS2801_Set_Delay_Update(Intensity, 502, LS_DELAY_1, Ja); //502
    15f4:	85 e0       	ldi	r24, 0x05	; 5
    15f6:	46 ef       	ldi	r20, 0xF6	; 246
    15f8:	51 e0       	ldi	r21, 0x01	; 1
    15fa:	60 e0       	ldi	r22, 0x00	; 0
    15fc:	70 e0       	ldi	r23, 0x00	; 0
    15fe:	0a ef       	ldi	r16, 0xFA	; 250
    1600:	10 e0       	ldi	r17, 0x00	; 0
    1602:	20 e0       	ldi	r18, 0x00	; 0
    1604:	30 e0       	ldi	r19, 0x00	; 0
    1606:	0e 94 e5 01 	call	0x3ca	; 0x3ca <WS2801_Set_Delay_Update>
WS2801_Set_Delay_Update(Intensity, 450+2319, LS_DELAY_1, Ja); //450
    160a:	85 e0       	ldi	r24, 0x05	; 5
    160c:	41 ed       	ldi	r20, 0xD1	; 209
    160e:	5a e0       	ldi	r21, 0x0A	; 10
    1610:	60 e0       	ldi	r22, 0x00	; 0
    1612:	70 e0       	ldi	r23, 0x00	; 0
    1614:	0a ef       	ldi	r16, 0xFA	; 250
    1616:	10 e0       	ldi	r17, 0x00	; 0
    1618:	20 e0       	ldi	r18, 0x00	; 0
    161a:	30 e0       	ldi	r19, 0x00	; 0
    161c:	0e 94 e5 01 	call	0x3ca	; 0x3ca <WS2801_Set_Delay_Update>
//WS2801_Set_Delay_Update(Intensity, 2319, LS_DELAY_1, Ja); //2319 - Polka stuk

WS2801_Set_Delay_Update(Intensity, 405, LS_DELAY_1, Ja); //405
    1620:	85 e0       	ldi	r24, 0x05	; 5
    1622:	45 e9       	ldi	r20, 0x95	; 149
    1624:	51 e0       	ldi	r21, 0x01	; 1
    1626:	60 e0       	ldi	r22, 0x00	; 0
    1628:	70 e0       	ldi	r23, 0x00	; 0
    162a:	0a ef       	ldi	r16, 0xFA	; 250
    162c:	10 e0       	ldi	r17, 0x00	; 0
    162e:	20 e0       	ldi	r18, 0x00	; 0
    1630:	30 e0       	ldi	r19, 0x00	; 0
    1632:	0e 94 e5 01 	call	0x3ca	; 0x3ca <WS2801_Set_Delay_Update>
WS2801_Set_Delay_Update(Intensity, 373, LS_DELAY_1, Ja); //373
    1636:	85 e0       	ldi	r24, 0x05	; 5
    1638:	45 e7       	ldi	r20, 0x75	; 117
    163a:	51 e0       	ldi	r21, 0x01	; 1
    163c:	60 e0       	ldi	r22, 0x00	; 0
    163e:	70 e0       	ldi	r23, 0x00	; 0
    1640:	0a ef       	ldi	r16, 0xFA	; 250
    1642:	10 e0       	ldi	r17, 0x00	; 0
    1644:	20 e0       	ldi	r18, 0x00	; 0
    1646:	30 e0       	ldi	r19, 0x00	; 0
    1648:	0e 94 e5 01 	call	0x3ca	; 0x3ca <WS2801_Set_Delay_Update>
WS2801_Set_Delay_Update(Intensity, 285, LS_DELAY_1, Ja); //285
    164c:	85 e0       	ldi	r24, 0x05	; 5
    164e:	4d e1       	ldi	r20, 0x1D	; 29
    1650:	51 e0       	ldi	r21, 0x01	; 1
    1652:	60 e0       	ldi	r22, 0x00	; 0
    1654:	70 e0       	ldi	r23, 0x00	; 0
    1656:	0a ef       	ldi	r16, 0xFA	; 250
    1658:	10 e0       	ldi	r17, 0x00	; 0
    165a:	20 e0       	ldi	r18, 0x00	; 0
    165c:	30 e0       	ldi	r19, 0x00	; 0
    165e:	0e 94 e5 01 	call	0x3ca	; 0x3ca <WS2801_Set_Delay_Update>
WS2801_Set_Delay_Update(Intensity, 906+2126, LS_DELAY_1, Ja); //906
    1662:	85 e0       	ldi	r24, 0x05	; 5
    1664:	48 ed       	ldi	r20, 0xD8	; 216
    1666:	5b e0       	ldi	r21, 0x0B	; 11
    1668:	60 e0       	ldi	r22, 0x00	; 0
    166a:	70 e0       	ldi	r23, 0x00	; 0
    166c:	0a ef       	ldi	r16, 0xFA	; 250
    166e:	10 e0       	ldi	r17, 0x00	; 0
    1670:	20 e0       	ldi	r18, 0x00	; 0
    1672:	30 e0       	ldi	r19, 0x00	; 0
    1674:	0e 94 e5 01 	call	0x3ca	; 0x3ca <WS2801_Set_Delay_Update>
//WS2801_Set_Delay_Update(Intensity, 2126, LS_DELAY_1, Ja); //2126 - Polka stuk

WS2801_Set_Delay_Update(Intensity, 294, LS_DELAY_1, Ja); //294
    1678:	85 e0       	ldi	r24, 0x05	; 5
    167a:	46 e2       	ldi	r20, 0x26	; 38
    167c:	51 e0       	ldi	r21, 0x01	; 1
    167e:	60 e0       	ldi	r22, 0x00	; 0
    1680:	70 e0       	ldi	r23, 0x00	; 0
    1682:	0a ef       	ldi	r16, 0xFA	; 250
    1684:	10 e0       	ldi	r17, 0x00	; 0
    1686:	20 e0       	ldi	r18, 0x00	; 0
    1688:	30 e0       	ldi	r19, 0x00	; 0
    168a:	0e 94 e5 01 	call	0x3ca	; 0x3ca <WS2801_Set_Delay_Update>
WS2801_Set_Delay_Update(Intensity, 364, LS_DELAY_1, Ja); //364
    168e:	85 e0       	ldi	r24, 0x05	; 5
    1690:	4c e6       	ldi	r20, 0x6C	; 108
    1692:	51 e0       	ldi	r21, 0x01	; 1
    1694:	60 e0       	ldi	r22, 0x00	; 0
    1696:	70 e0       	ldi	r23, 0x00	; 0
    1698:	0a ef       	ldi	r16, 0xFA	; 250
    169a:	10 e0       	ldi	r17, 0x00	; 0
    169c:	20 e0       	ldi	r18, 0x00	; 0
    169e:	30 e0       	ldi	r19, 0x00	; 0
    16a0:	0e 94 e5 01 	call	0x3ca	; 0x3ca <WS2801_Set_Delay_Update>
WS2801_Set_Delay_Update(Intensity, 382, LS_DELAY_1, Ja); //382
    16a4:	85 e0       	ldi	r24, 0x05	; 5
    16a6:	4e e7       	ldi	r20, 0x7E	; 126
    16a8:	51 e0       	ldi	r21, 0x01	; 1
    16aa:	60 e0       	ldi	r22, 0x00	; 0
    16ac:	70 e0       	ldi	r23, 0x00	; 0
    16ae:	0a ef       	ldi	r16, 0xFA	; 250
    16b0:	10 e0       	ldi	r17, 0x00	; 0
    16b2:	20 e0       	ldi	r18, 0x00	; 0
    16b4:	30 e0       	ldi	r19, 0x00	; 0
    16b6:	0e 94 e5 01 	call	0x3ca	; 0x3ca <WS2801_Set_Delay_Update>
WS2801_Set_Delay_Update(Intensity, 294, LS_DELAY_1, Ja); //294
    16ba:	85 e0       	ldi	r24, 0x05	; 5
    16bc:	46 e2       	ldi	r20, 0x26	; 38
    16be:	51 e0       	ldi	r21, 0x01	; 1
    16c0:	60 e0       	ldi	r22, 0x00	; 0
    16c2:	70 e0       	ldi	r23, 0x00	; 0
    16c4:	0a ef       	ldi	r16, 0xFA	; 250
    16c6:	10 e0       	ldi	r17, 0x00	; 0
    16c8:	20 e0       	ldi	r18, 0x00	; 0
    16ca:	30 e0       	ldi	r19, 0x00	; 0
    16cc:	0e 94 e5 01 	call	0x3ca	; 0x3ca <WS2801_Set_Delay_Update>
WS2801_Set_Delay_Update(Intensity, 506, LS_DELAY_1, Ja); //506
    16d0:	85 e0       	ldi	r24, 0x05	; 5
    16d2:	4a ef       	ldi	r20, 0xFA	; 250
    16d4:	51 e0       	ldi	r21, 0x01	; 1
    16d6:	60 e0       	ldi	r22, 0x00	; 0
    16d8:	70 e0       	ldi	r23, 0x00	; 0
    16da:	0a ef       	ldi	r16, 0xFA	; 250
    16dc:	10 e0       	ldi	r17, 0x00	; 0
    16de:	20 e0       	ldi	r18, 0x00	; 0
    16e0:	30 e0       	ldi	r19, 0x00	; 0
    16e2:	0e 94 e5 01 	call	0x3ca	; 0x3ca <WS2801_Set_Delay_Update>
WS2801_Set_Delay_Update(Intensity, 423+2361, LS_DELAY_1, Ja); //423
    16e6:	85 e0       	ldi	r24, 0x05	; 5
    16e8:	40 ee       	ldi	r20, 0xE0	; 224
    16ea:	5a e0       	ldi	r21, 0x0A	; 10
    16ec:	60 e0       	ldi	r22, 0x00	; 0
    16ee:	70 e0       	ldi	r23, 0x00	; 0
    16f0:	0a ef       	ldi	r16, 0xFA	; 250
    16f2:	10 e0       	ldi	r17, 0x00	; 0
    16f4:	20 e0       	ldi	r18, 0x00	; 0
    16f6:	30 e0       	ldi	r19, 0x00	; 0
    16f8:	0e 94 e5 01 	call	0x3ca	; 0x3ca <WS2801_Set_Delay_Update>
//WS2801_Set_Delay_Update(Intensity, 2361, LS_DELAY_1, Ja); //2361 - Polka stuk

WS2801_Set_Delay_Update(Intensity, 414, LS_DELAY_1, Ja); //414
    16fc:	85 e0       	ldi	r24, 0x05	; 5
    16fe:	4e e9       	ldi	r20, 0x9E	; 158
    1700:	51 e0       	ldi	r21, 0x01	; 1
    1702:	60 e0       	ldi	r22, 0x00	; 0
    1704:	70 e0       	ldi	r23, 0x00	; 0
    1706:	0a ef       	ldi	r16, 0xFA	; 250
    1708:	10 e0       	ldi	r17, 0x00	; 0
    170a:	20 e0       	ldi	r18, 0x00	; 0
    170c:	30 e0       	ldi	r19, 0x00	; 0
    170e:	0e 94 e5 01 	call	0x3ca	; 0x3ca <WS2801_Set_Delay_Update>
WS2801_Set_Delay_Update(Intensity, 363, LS_DELAY_1, Ja); //363
    1712:	85 e0       	ldi	r24, 0x05	; 5
    1714:	4b e6       	ldi	r20, 0x6B	; 107
    1716:	51 e0       	ldi	r21, 0x01	; 1
    1718:	60 e0       	ldi	r22, 0x00	; 0
    171a:	70 e0       	ldi	r23, 0x00	; 0
    171c:	0a ef       	ldi	r16, 0xFA	; 250
    171e:	10 e0       	ldi	r17, 0x00	; 0
    1720:	20 e0       	ldi	r18, 0x00	; 0
    1722:	30 e0       	ldi	r19, 0x00	; 0
    1724:	0e 94 e5 01 	call	0x3ca	; 0x3ca <WS2801_Set_Delay_Update>
WS2801_Set_Delay_Update(Intensity, 281, LS_DELAY_1, Ja); //281
    1728:	85 e0       	ldi	r24, 0x05	; 5
    172a:	49 e1       	ldi	r20, 0x19	; 25
    172c:	51 e0       	ldi	r21, 0x01	; 1
    172e:	60 e0       	ldi	r22, 0x00	; 0
    1730:	70 e0       	ldi	r23, 0x00	; 0
    1732:	0a ef       	ldi	r16, 0xFA	; 250
    1734:	10 e0       	ldi	r17, 0x00	; 0
    1736:	20 e0       	ldi	r18, 0x00	; 0
    1738:	30 e0       	ldi	r19, 0x00	; 0
    173a:	0e 94 e5 01 	call	0x3ca	; 0x3ca <WS2801_Set_Delay_Update>
WS2801_Set_Delay_Update(Intensity, 1615, LS_DELAY_1, Ja); //1615
    173e:	85 e0       	ldi	r24, 0x05	; 5
    1740:	4f e4       	ldi	r20, 0x4F	; 79
    1742:	56 e0       	ldi	r21, 0x06	; 6
    1744:	60 e0       	ldi	r22, 0x00	; 0
    1746:	70 e0       	ldi	r23, 0x00	; 0
    1748:	0a ef       	ldi	r16, 0xFA	; 250
    174a:	10 e0       	ldi	r17, 0x00	; 0
    174c:	20 e0       	ldi	r18, 0x00	; 0
    174e:	30 e0       	ldi	r19, 0x00	; 0
    1750:	0e 94 e5 01 	call	0x3ca	; 0x3ca <WS2801_Set_Delay_Update>

WS2801_Set_Delay_Update(Intensity, 1108, LS_DELAY_1, Ja); //1108 - Simbaal
    1754:	85 e0       	ldi	r24, 0x05	; 5
    1756:	44 e5       	ldi	r20, 0x54	; 84
    1758:	54 e0       	ldi	r21, 0x04	; 4
    175a:	60 e0       	ldi	r22, 0x00	; 0
    175c:	70 e0       	ldi	r23, 0x00	; 0
    175e:	0a ef       	ldi	r16, 0xFA	; 250
    1760:	10 e0       	ldi	r17, 0x00	; 0
    1762:	20 e0       	ldi	r18, 0x00	; 0
    1764:	30 e0       	ldi	r19, 0x00	; 0
    1766:	0e 94 e5 01 	call	0x3ca	; 0x3ca <WS2801_Set_Delay_Update>

WS2801_Set_Delay_Update(Intensity, 635+2646, LS_DELAY_1, Ja); //635 - Simbaal
    176a:	85 e0       	ldi	r24, 0x05	; 5
    176c:	41 ed       	ldi	r20, 0xD1	; 209
    176e:	5c e0       	ldi	r21, 0x0C	; 12
    1770:	60 e0       	ldi	r22, 0x00	; 0
    1772:	70 e0       	ldi	r23, 0x00	; 0
    1774:	0a ef       	ldi	r16, 0xFA	; 250
    1776:	10 e0       	ldi	r17, 0x00	; 0
    1778:	20 e0       	ldi	r18, 0x00	; 0
    177a:	30 e0       	ldi	r19, 0x00	; 0
    177c:	0e 94 e5 01 	call	0x3ca	; 0x3ca <WS2801_Set_Delay_Update>
//WS2801_Set_Delay_Update(Intensity, 2646, LS_DELAY_1, Ja); //2646 - Polka stuk

WS2801_Set_Delay_Update(Intensity, 1058, LS_DELAY_1, Ja); //1058 - Simbaal
    1780:	85 e0       	ldi	r24, 0x05	; 5
    1782:	42 e2       	ldi	r20, 0x22	; 34
    1784:	54 e0       	ldi	r21, 0x04	; 4
    1786:	60 e0       	ldi	r22, 0x00	; 0
    1788:	70 e0       	ldi	r23, 0x00	; 0
    178a:	0a ef       	ldi	r16, 0xFA	; 250
    178c:	10 e0       	ldi	r17, 0x00	; 0
    178e:	20 e0       	ldi	r18, 0x00	; 0
    1790:	30 e0       	ldi	r19, 0x00	; 0
    1792:	0e 94 e5 01 	call	0x3ca	; 0x3ca <WS2801_Set_Delay_Update>

WS2801_Set_Delay_Update(Intensity, 635+2213+1596, LS_DELAY_1, Ja); //635 - Simbaal
    1796:	85 e0       	ldi	r24, 0x05	; 5
    1798:	4c e5       	ldi	r20, 0x5C	; 92
    179a:	51 e1       	ldi	r21, 0x11	; 17
    179c:	60 e0       	ldi	r22, 0x00	; 0
    179e:	70 e0       	ldi	r23, 0x00	; 0
    17a0:	0a ef       	ldi	r16, 0xFA	; 250
    17a2:	10 e0       	ldi	r17, 0x00	; 0
    17a4:	20 e0       	ldi	r18, 0x00	; 0
    17a6:	30 e0       	ldi	r19, 0x00	; 0
    17a8:	0e 94 e5 01 	call	0x3ca	; 0x3ca <WS2801_Set_Delay_Update>
//WS2801_Set_Delay_Update(Intensity, 2213, LS_DELAY_1, Ja); //2213 - Polka
//WS2801_Set_Delay_Update(Intensity, 1596, LS_DELAY_1, Ja); //1596 - Aanloop climax

WS2801_Set_Delay_Update(Intensity, 580, LS_DELAY_1, Ja); //580 - Simbaal
    17ac:	85 e0       	ldi	r24, 0x05	; 5
    17ae:	44 e4       	ldi	r20, 0x44	; 68
    17b0:	52 e0       	ldi	r21, 0x02	; 2
    17b2:	60 e0       	ldi	r22, 0x00	; 0
    17b4:	70 e0       	ldi	r23, 0x00	; 0
    17b6:	0a ef       	ldi	r16, 0xFA	; 250
    17b8:	10 e0       	ldi	r17, 0x00	; 0
    17ba:	20 e0       	ldi	r18, 0x00	; 0
    17bc:	30 e0       	ldi	r19, 0x00	; 0
    17be:	0e 94 e5 01 	call	0x3ca	; 0x3ca <WS2801_Set_Delay_Update>
WS2801_Set_Delay_Update(Intensity, 423, LS_DELAY_1, Ja); //423 - Tuut
    17c2:	85 e0       	ldi	r24, 0x05	; 5
    17c4:	47 ea       	ldi	r20, 0xA7	; 167
    17c6:	51 e0       	ldi	r21, 0x01	; 1
    17c8:	60 e0       	ldi	r22, 0x00	; 0
    17ca:	70 e0       	ldi	r23, 0x00	; 0
    17cc:	0a ef       	ldi	r16, 0xFA	; 250
    17ce:	10 e0       	ldi	r17, 0x00	; 0
    17d0:	20 e0       	ldi	r18, 0x00	; 0
    17d2:	30 e0       	ldi	r19, 0x00	; 0
    17d4:	0e 94 e5 01 	call	0x3ca	; 0x3ca <WS2801_Set_Delay_Update>
WS2801_Set_Delay_Update(Intensity, 681, LS_DELAY_1, Ja); //681
    17d8:	85 e0       	ldi	r24, 0x05	; 5
    17da:	49 ea       	ldi	r20, 0xA9	; 169
    17dc:	52 e0       	ldi	r21, 0x02	; 2
    17de:	60 e0       	ldi	r22, 0x00	; 0
    17e0:	70 e0       	ldi	r23, 0x00	; 0
    17e2:	0a ef       	ldi	r16, 0xFA	; 250
    17e4:	10 e0       	ldi	r17, 0x00	; 0
    17e6:	20 e0       	ldi	r18, 0x00	; 0
    17e8:	30 e0       	ldi	r19, 0x00	; 0
    17ea:	0e 94 e5 01 	call	0x3ca	; 0x3ca <WS2801_Set_Delay_Update>
WS2801_Set_Delay_Update(Intensity, 400, LS_DELAY_1, Ja); //400
    17ee:	85 e0       	ldi	r24, 0x05	; 5
    17f0:	40 e9       	ldi	r20, 0x90	; 144
    17f2:	51 e0       	ldi	r21, 0x01	; 1
    17f4:	60 e0       	ldi	r22, 0x00	; 0
    17f6:	70 e0       	ldi	r23, 0x00	; 0
    17f8:	0a ef       	ldi	r16, 0xFA	; 250
    17fa:	10 e0       	ldi	r17, 0x00	; 0
    17fc:	20 e0       	ldi	r18, 0x00	; 0
    17fe:	30 e0       	ldi	r19, 0x00	; 0
    1800:	0e 94 e5 01 	call	0x3ca	; 0x3ca <WS2801_Set_Delay_Update>
WS2801_Set_Delay_Update(Intensity, 686, LS_DELAY_1, Ja); //686
    1804:	85 e0       	ldi	r24, 0x05	; 5
    1806:	4e ea       	ldi	r20, 0xAE	; 174
    1808:	52 e0       	ldi	r21, 0x02	; 2
    180a:	60 e0       	ldi	r22, 0x00	; 0
    180c:	70 e0       	ldi	r23, 0x00	; 0
    180e:	0a ef       	ldi	r16, 0xFA	; 250
    1810:	10 e0       	ldi	r17, 0x00	; 0
    1812:	20 e0       	ldi	r18, 0x00	; 0
    1814:	30 e0       	ldi	r19, 0x00	; 0
    1816:	0e 94 e5 01 	call	0x3ca	; 0x3ca <WS2801_Set_Delay_Update>
WS2801_Set_Delay_Update(Intensity, 423, LS_DELAY_1, Ja); //423
    181a:	85 e0       	ldi	r24, 0x05	; 5
    181c:	47 ea       	ldi	r20, 0xA7	; 167
    181e:	51 e0       	ldi	r21, 0x01	; 1
    1820:	60 e0       	ldi	r22, 0x00	; 0
    1822:	70 e0       	ldi	r23, 0x00	; 0
    1824:	0a ef       	ldi	r16, 0xFA	; 250
    1826:	10 e0       	ldi	r17, 0x00	; 0
    1828:	20 e0       	ldi	r18, 0x00	; 0
    182a:	30 e0       	ldi	r19, 0x00	; 0
    182c:	0e 94 e5 01 	call	0x3ca	; 0x3ca <WS2801_Set_Delay_Update>
WS2801_Set_Delay_Update(Intensity, 386, LS_DELAY_1, Ja); //386
    1830:	85 e0       	ldi	r24, 0x05	; 5
    1832:	42 e8       	ldi	r20, 0x82	; 130
    1834:	51 e0       	ldi	r21, 0x01	; 1
    1836:	60 e0       	ldi	r22, 0x00	; 0
    1838:	70 e0       	ldi	r23, 0x00	; 0
    183a:	0a ef       	ldi	r16, 0xFA	; 250
    183c:	10 e0       	ldi	r17, 0x00	; 0
    183e:	20 e0       	ldi	r18, 0x00	; 0
    1840:	30 e0       	ldi	r19, 0x00	; 0
    1842:	0e 94 e5 01 	call	0x3ca	; 0x3ca <WS2801_Set_Delay_Update>
WS2801_Set_Delay_Update(Intensity, 263, LS_DELAY_1, Ja); //263
    1846:	85 e0       	ldi	r24, 0x05	; 5
    1848:	47 e0       	ldi	r20, 0x07	; 7
    184a:	51 e0       	ldi	r21, 0x01	; 1
    184c:	60 e0       	ldi	r22, 0x00	; 0
    184e:	70 e0       	ldi	r23, 0x00	; 0
    1850:	0a ef       	ldi	r16, 0xFA	; 250
    1852:	10 e0       	ldi	r17, 0x00	; 0
    1854:	20 e0       	ldi	r18, 0x00	; 0
    1856:	30 e0       	ldi	r19, 0x00	; 0
    1858:	0e 94 e5 01 	call	0x3ca	; 0x3ca <WS2801_Set_Delay_Update>
WS2801_Set_Delay_Update(Intensity, 418, LS_DELAY_1, Ja); //418
    185c:	85 e0       	ldi	r24, 0x05	; 5
    185e:	42 ea       	ldi	r20, 0xA2	; 162
    1860:	51 e0       	ldi	r21, 0x01	; 1
    1862:	60 e0       	ldi	r22, 0x00	; 0
    1864:	70 e0       	ldi	r23, 0x00	; 0
    1866:	0a ef       	ldi	r16, 0xFA	; 250
    1868:	10 e0       	ldi	r17, 0x00	; 0
    186a:	20 e0       	ldi	r18, 0x00	; 0
    186c:	30 e0       	ldi	r19, 0x00	; 0
    186e:	0e 94 e5 01 	call	0x3ca	; 0x3ca <WS2801_Set_Delay_Update>
WS2801_Set_Delay_Update(Intensity, 667, LS_DELAY_1, Ja); //667
    1872:	85 e0       	ldi	r24, 0x05	; 5
    1874:	4b e9       	ldi	r20, 0x9B	; 155
    1876:	52 e0       	ldi	r21, 0x02	; 2
    1878:	60 e0       	ldi	r22, 0x00	; 0
    187a:	70 e0       	ldi	r23, 0x00	; 0
    187c:	0a ef       	ldi	r16, 0xFA	; 250
    187e:	10 e0       	ldi	r17, 0x00	; 0
    1880:	20 e0       	ldi	r18, 0x00	; 0
    1882:	30 e0       	ldi	r19, 0x00	; 0
    1884:	0e 94 e5 01 	call	0x3ca	; 0x3ca <WS2801_Set_Delay_Update>

WS2801_Set_Delay_Update(Intensity, 428, LS_DELAY_1, Ja); //428 - Tuut
    1888:	85 e0       	ldi	r24, 0x05	; 5
    188a:	4c ea       	ldi	r20, 0xAC	; 172
    188c:	51 e0       	ldi	r21, 0x01	; 1
    188e:	60 e0       	ldi	r22, 0x00	; 0
    1890:	70 e0       	ldi	r23, 0x00	; 0
    1892:	0a ef       	ldi	r16, 0xFA	; 250
    1894:	10 e0       	ldi	r17, 0x00	; 0
    1896:	20 e0       	ldi	r18, 0x00	; 0
    1898:	30 e0       	ldi	r19, 0x00	; 0
    189a:	0e 94 e5 01 	call	0x3ca	; 0x3ca <WS2801_Set_Delay_Update>
WS2801_Set_Delay_Update(Intensity, 681, LS_DELAY_1, Ja); //681
    189e:	85 e0       	ldi	r24, 0x05	; 5
    18a0:	49 ea       	ldi	r20, 0xA9	; 169
    18a2:	52 e0       	ldi	r21, 0x02	; 2
    18a4:	60 e0       	ldi	r22, 0x00	; 0
    18a6:	70 e0       	ldi	r23, 0x00	; 0
    18a8:	0a ef       	ldi	r16, 0xFA	; 250
    18aa:	10 e0       	ldi	r17, 0x00	; 0
    18ac:	20 e0       	ldi	r18, 0x00	; 0
    18ae:	30 e0       	ldi	r19, 0x00	; 0
    18b0:	0e 94 e5 01 	call	0x3ca	; 0x3ca <WS2801_Set_Delay_Update>
WS2801_Set_Delay_Update(Intensity, 400, LS_DELAY_1, Ja); //400
    18b4:	85 e0       	ldi	r24, 0x05	; 5
    18b6:	40 e9       	ldi	r20, 0x90	; 144
    18b8:	51 e0       	ldi	r21, 0x01	; 1
    18ba:	60 e0       	ldi	r22, 0x00	; 0
    18bc:	70 e0       	ldi	r23, 0x00	; 0
    18be:	0a ef       	ldi	r16, 0xFA	; 250
    18c0:	10 e0       	ldi	r17, 0x00	; 0
    18c2:	20 e0       	ldi	r18, 0x00	; 0
    18c4:	30 e0       	ldi	r19, 0x00	; 0
    18c6:	0e 94 e5 01 	call	0x3ca	; 0x3ca <WS2801_Set_Delay_Update>
WS2801_Set_Delay_Update(Intensity, 668, LS_DELAY_1, Ja); //668
    18ca:	85 e0       	ldi	r24, 0x05	; 5
    18cc:	4c e9       	ldi	r20, 0x9C	; 156
    18ce:	52 e0       	ldi	r21, 0x02	; 2
    18d0:	60 e0       	ldi	r22, 0x00	; 0
    18d2:	70 e0       	ldi	r23, 0x00	; 0
    18d4:	0a ef       	ldi	r16, 0xFA	; 250
    18d6:	10 e0       	ldi	r17, 0x00	; 0
    18d8:	20 e0       	ldi	r18, 0x00	; 0
    18da:	30 e0       	ldi	r19, 0x00	; 0
    18dc:	0e 94 e5 01 	call	0x3ca	; 0x3ca <WS2801_Set_Delay_Update>
WS2801_Set_Delay_Update(Intensity, 414, LS_DELAY_1, Ja); //414
    18e0:	85 e0       	ldi	r24, 0x05	; 5
    18e2:	4e e9       	ldi	r20, 0x9E	; 158
    18e4:	51 e0       	ldi	r21, 0x01	; 1
    18e6:	60 e0       	ldi	r22, 0x00	; 0
    18e8:	70 e0       	ldi	r23, 0x00	; 0
    18ea:	0a ef       	ldi	r16, 0xFA	; 250
    18ec:	10 e0       	ldi	r17, 0x00	; 0
    18ee:	20 e0       	ldi	r18, 0x00	; 0
    18f0:	30 e0       	ldi	r19, 0x00	; 0
    18f2:	0e 94 e5 01 	call	0x3ca	; 0x3ca <WS2801_Set_Delay_Update>
WS2801_Set_Delay_Update(Intensity, 763, LS_DELAY_1, Ja); //763
    18f6:	85 e0       	ldi	r24, 0x05	; 5
    18f8:	4b ef       	ldi	r20, 0xFB	; 251
    18fa:	52 e0       	ldi	r21, 0x02	; 2
    18fc:	60 e0       	ldi	r22, 0x00	; 0
    18fe:	70 e0       	ldi	r23, 0x00	; 0
    1900:	0a ef       	ldi	r16, 0xFA	; 250
    1902:	10 e0       	ldi	r17, 0x00	; 0
    1904:	20 e0       	ldi	r18, 0x00	; 0
    1906:	30 e0       	ldi	r19, 0x00	; 0
    1908:	0e 94 e5 01 	call	0x3ca	; 0x3ca <WS2801_Set_Delay_Update>
WS2801_Set_Delay_Update(Intensity, 355, LS_DELAY_1, Ja); //355
    190c:	85 e0       	ldi	r24, 0x05	; 5
    190e:	43 e6       	ldi	r20, 0x63	; 99
    1910:	51 e0       	ldi	r21, 0x01	; 1
    1912:	60 e0       	ldi	r22, 0x00	; 0
    1914:	70 e0       	ldi	r23, 0x00	; 0
    1916:	0a ef       	ldi	r16, 0xFA	; 250
    1918:	10 e0       	ldi	r17, 0x00	; 0
    191a:	20 e0       	ldi	r18, 0x00	; 0
    191c:	30 e0       	ldi	r19, 0x00	; 0
    191e:	0e 94 e5 01 	call	0x3ca	; 0x3ca <WS2801_Set_Delay_Update>
WS2801_Set_Delay_Update(Intensity, 662, LS_DELAY_1, Ja); //662
    1922:	85 e0       	ldi	r24, 0x05	; 5
    1924:	46 e9       	ldi	r20, 0x96	; 150
    1926:	52 e0       	ldi	r21, 0x02	; 2
    1928:	60 e0       	ldi	r22, 0x00	; 0
    192a:	70 e0       	ldi	r23, 0x00	; 0
    192c:	0a ef       	ldi	r16, 0xFA	; 250
    192e:	10 e0       	ldi	r17, 0x00	; 0
    1930:	20 e0       	ldi	r18, 0x00	; 0
    1932:	30 e0       	ldi	r19, 0x00	; 0
    1934:	0e 94 e5 01 	call	0x3ca	; 0x3ca <WS2801_Set_Delay_Update>
WS2801_Set_Delay_Update(Intensity, 529, LS_DELAY_1, Ja); //529
    1938:	85 e0       	ldi	r24, 0x05	; 5
    193a:	41 e1       	ldi	r20, 0x11	; 17
    193c:	52 e0       	ldi	r21, 0x02	; 2
    193e:	60 e0       	ldi	r22, 0x00	; 0
    1940:	70 e0       	ldi	r23, 0x00	; 0
    1942:	0a ef       	ldi	r16, 0xFA	; 250
    1944:	10 e0       	ldi	r17, 0x00	; 0
    1946:	20 e0       	ldi	r18, 0x00	; 0
    1948:	30 e0       	ldi	r19, 0x00	; 0
    194a:	0e 94 e5 01 	call	0x3ca	; 0x3ca <WS2801_Set_Delay_Update>

WS2801_Set_Delay_Update(Intensity, 594, LS_DELAY_1, Ja); //594 - Tuut
    194e:	85 e0       	ldi	r24, 0x05	; 5
    1950:	42 e5       	ldi	r20, 0x52	; 82
    1952:	52 e0       	ldi	r21, 0x02	; 2
    1954:	60 e0       	ldi	r22, 0x00	; 0
    1956:	70 e0       	ldi	r23, 0x00	; 0
    1958:	0a ef       	ldi	r16, 0xFA	; 250
    195a:	10 e0       	ldi	r17, 0x00	; 0
    195c:	20 e0       	ldi	r18, 0x00	; 0
    195e:	30 e0       	ldi	r19, 0x00	; 0
    1960:	0e 94 e5 01 	call	0x3ca	; 0x3ca <WS2801_Set_Delay_Update>
WS2801_Set_Delay_Update(Intensity, 510, LS_DELAY_1, Ja); //510
    1964:	85 e0       	ldi	r24, 0x05	; 5
    1966:	4e ef       	ldi	r20, 0xFE	; 254
    1968:	51 e0       	ldi	r21, 0x01	; 1
    196a:	60 e0       	ldi	r22, 0x00	; 0
    196c:	70 e0       	ldi	r23, 0x00	; 0
    196e:	0a ef       	ldi	r16, 0xFA	; 250
    1970:	10 e0       	ldi	r17, 0x00	; 0
    1972:	20 e0       	ldi	r18, 0x00	; 0
    1974:	30 e0       	ldi	r19, 0x00	; 0
    1976:	0e 94 e5 01 	call	0x3ca	; 0x3ca <WS2801_Set_Delay_Update>
WS2801_Set_Delay_Update(Intensity, 378, LS_DELAY_1, Ja); //378
    197a:	85 e0       	ldi	r24, 0x05	; 5
    197c:	4a e7       	ldi	r20, 0x7A	; 122
    197e:	51 e0       	ldi	r21, 0x01	; 1
    1980:	60 e0       	ldi	r22, 0x00	; 0
    1982:	70 e0       	ldi	r23, 0x00	; 0
    1984:	0a ef       	ldi	r16, 0xFA	; 250
    1986:	10 e0       	ldi	r17, 0x00	; 0
    1988:	20 e0       	ldi	r18, 0x00	; 0
    198a:	30 e0       	ldi	r19, 0x00	; 0
    198c:	0e 94 e5 01 	call	0x3ca	; 0x3ca <WS2801_Set_Delay_Update>
WS2801_Set_Delay_Update(Intensity, 248, LS_DELAY_1, Ja); //248
    1990:	85 e0       	ldi	r24, 0x05	; 5
    1992:	48 ef       	ldi	r20, 0xF8	; 248
    1994:	50 e0       	ldi	r21, 0x00	; 0
    1996:	60 e0       	ldi	r22, 0x00	; 0
    1998:	70 e0       	ldi	r23, 0x00	; 0
    199a:	0a ef       	ldi	r16, 0xFA	; 250
    199c:	10 e0       	ldi	r17, 0x00	; 0
    199e:	20 e0       	ldi	r18, 0x00	; 0
    19a0:	30 e0       	ldi	r19, 0x00	; 0
    19a2:	0e 94 e5 01 	call	0x3ca	; 0x3ca <WS2801_Set_Delay_Update>
WS2801_Set_Delay_Update(Intensity, 410, LS_DELAY_1, Ja); //410
    19a6:	85 e0       	ldi	r24, 0x05	; 5
    19a8:	4a e9       	ldi	r20, 0x9A	; 154
    19aa:	51 e0       	ldi	r21, 0x01	; 1
    19ac:	60 e0       	ldi	r22, 0x00	; 0
    19ae:	70 e0       	ldi	r23, 0x00	; 0
    19b0:	0a ef       	ldi	r16, 0xFA	; 250
    19b2:	10 e0       	ldi	r17, 0x00	; 0
    19b4:	20 e0       	ldi	r18, 0x00	; 0
    19b6:	30 e0       	ldi	r19, 0x00	; 0
    19b8:	0e 94 e5 01 	call	0x3ca	; 0x3ca <WS2801_Set_Delay_Update>
WS2801_Set_Delay_Update(Intensity, 386, LS_DELAY_1, Ja); //386
    19bc:	85 e0       	ldi	r24, 0x05	; 5
    19be:	42 e8       	ldi	r20, 0x82	; 130
    19c0:	51 e0       	ldi	r21, 0x01	; 1
    19c2:	60 e0       	ldi	r22, 0x00	; 0
    19c4:	70 e0       	ldi	r23, 0x00	; 0
    19c6:	0a ef       	ldi	r16, 0xFA	; 250
    19c8:	10 e0       	ldi	r17, 0x00	; 0
    19ca:	20 e0       	ldi	r18, 0x00	; 0
    19cc:	30 e0       	ldi	r19, 0x00	; 0
    19ce:	0e 94 e5 01 	call	0x3ca	; 0x3ca <WS2801_Set_Delay_Update>
WS2801_Set_Delay_Update(Intensity, 290, LS_DELAY_1, Ja); //290
    19d2:	85 e0       	ldi	r24, 0x05	; 5
    19d4:	42 e2       	ldi	r20, 0x22	; 34
    19d6:	51 e0       	ldi	r21, 0x01	; 1
    19d8:	60 e0       	ldi	r22, 0x00	; 0
    19da:	70 e0       	ldi	r23, 0x00	; 0
    19dc:	0a ef       	ldi	r16, 0xFA	; 250
    19de:	10 e0       	ldi	r17, 0x00	; 0
    19e0:	20 e0       	ldi	r18, 0x00	; 0
    19e2:	30 e0       	ldi	r19, 0x00	; 0
    19e4:	0e 94 e5 01 	call	0x3ca	; 0x3ca <WS2801_Set_Delay_Update>
WS2801_Set_Delay_Update(Intensity, 423, LS_DELAY_1, Ja); //423
    19e8:	85 e0       	ldi	r24, 0x05	; 5
    19ea:	47 ea       	ldi	r20, 0xA7	; 167
    19ec:	51 e0       	ldi	r21, 0x01	; 1
    19ee:	60 e0       	ldi	r22, 0x00	; 0
    19f0:	70 e0       	ldi	r23, 0x00	; 0
    19f2:	0a ef       	ldi	r16, 0xFA	; 250
    19f4:	10 e0       	ldi	r17, 0x00	; 0
    19f6:	20 e0       	ldi	r18, 0x00	; 0
    19f8:	30 e0       	ldi	r19, 0x00	; 0
    19fa:	0e 94 e5 01 	call	0x3ca	; 0x3ca <WS2801_Set_Delay_Update>
WS2801_Set_Delay_Update(Intensity, 663, LS_DELAY_1, Ja); //663
    19fe:	85 e0       	ldi	r24, 0x05	; 5
    1a00:	47 e9       	ldi	r20, 0x97	; 151
    1a02:	52 e0       	ldi	r21, 0x02	; 2
    1a04:	60 e0       	ldi	r22, 0x00	; 0
    1a06:	70 e0       	ldi	r23, 0x00	; 0
    1a08:	0a ef       	ldi	r16, 0xFA	; 250
    1a0a:	10 e0       	ldi	r17, 0x00	; 0
    1a0c:	20 e0       	ldi	r18, 0x00	; 0
    1a0e:	30 e0       	ldi	r19, 0x00	; 0
    1a10:	0e 94 e5 01 	call	0x3ca	; 0x3ca <WS2801_Set_Delay_Update>

WS2801_Set_Delay_Update(Intensity, 488, LS_DELAY_1, Ja); //488 - Tuut
    1a14:	85 e0       	ldi	r24, 0x05	; 5
    1a16:	48 ee       	ldi	r20, 0xE8	; 232
    1a18:	51 e0       	ldi	r21, 0x01	; 1
    1a1a:	60 e0       	ldi	r22, 0x00	; 0
    1a1c:	70 e0       	ldi	r23, 0x00	; 0
    1a1e:	0a ef       	ldi	r16, 0xFA	; 250
    1a20:	10 e0       	ldi	r17, 0x00	; 0
    1a22:	20 e0       	ldi	r18, 0x00	; 0
    1a24:	30 e0       	ldi	r19, 0x00	; 0
    1a26:	0e 94 e5 01 	call	0x3ca	; 0x3ca <WS2801_Set_Delay_Update>
WS2801_Set_Delay_Update(Intensity, 285, LS_DELAY_1, Ja); //285
    1a2a:	85 e0       	ldi	r24, 0x05	; 5
    1a2c:	4d e1       	ldi	r20, 0x1D	; 29
    1a2e:	51 e0       	ldi	r21, 0x01	; 1
    1a30:	60 e0       	ldi	r22, 0x00	; 0
    1a32:	70 e0       	ldi	r23, 0x00	; 0
    1a34:	0a ef       	ldi	r16, 0xFA	; 250
    1a36:	10 e0       	ldi	r17, 0x00	; 0
    1a38:	20 e0       	ldi	r18, 0x00	; 0
    1a3a:	30 e0       	ldi	r19, 0x00	; 0
    1a3c:	0e 94 e5 01 	call	0x3ca	; 0x3ca <WS2801_Set_Delay_Update>
WS2801_Set_Delay_Update(Intensity, 322, LS_DELAY_1, Ja); //322
    1a40:	85 e0       	ldi	r24, 0x05	; 5
    1a42:	42 e4       	ldi	r20, 0x42	; 66
    1a44:	51 e0       	ldi	r21, 0x01	; 1
    1a46:	60 e0       	ldi	r22, 0x00	; 0
    1a48:	70 e0       	ldi	r23, 0x00	; 0
    1a4a:	0a ef       	ldi	r16, 0xFA	; 250
    1a4c:	10 e0       	ldi	r17, 0x00	; 0
    1a4e:	20 e0       	ldi	r18, 0x00	; 0
    1a50:	30 e0       	ldi	r19, 0x00	; 0
    1a52:	0e 94 e5 01 	call	0x3ca	; 0x3ca <WS2801_Set_Delay_Update>
WS2801_Set_Delay_Update(Intensity, 428, LS_DELAY_1, Ja); //428
    1a56:	85 e0       	ldi	r24, 0x05	; 5
    1a58:	4c ea       	ldi	r20, 0xAC	; 172
    1a5a:	51 e0       	ldi	r21, 0x01	; 1
    1a5c:	60 e0       	ldi	r22, 0x00	; 0
    1a5e:	70 e0       	ldi	r23, 0x00	; 0
    1a60:	0a ef       	ldi	r16, 0xFA	; 250
    1a62:	10 e0       	ldi	r17, 0x00	; 0
    1a64:	20 e0       	ldi	r18, 0x00	; 0
    1a66:	30 e0       	ldi	r19, 0x00	; 0
    1a68:	0e 94 e5 01 	call	0x3ca	; 0x3ca <WS2801_Set_Delay_Update>
WS2801_Set_Delay_Update(Intensity, 391, LS_DELAY_1, Ja); //391
    1a6c:	85 e0       	ldi	r24, 0x05	; 5
    1a6e:	47 e8       	ldi	r20, 0x87	; 135
    1a70:	51 e0       	ldi	r21, 0x01	; 1
    1a72:	60 e0       	ldi	r22, 0x00	; 0
    1a74:	70 e0       	ldi	r23, 0x00	; 0
    1a76:	0a ef       	ldi	r16, 0xFA	; 250
    1a78:	10 e0       	ldi	r17, 0x00	; 0
    1a7a:	20 e0       	ldi	r18, 0x00	; 0
    1a7c:	30 e0       	ldi	r19, 0x00	; 0
    1a7e:	0e 94 e5 01 	call	0x3ca	; 0x3ca <WS2801_Set_Delay_Update>
WS2801_Set_Delay_Update(Intensity, 230, LS_DELAY_1, Ja); //230
    1a82:	85 e0       	ldi	r24, 0x05	; 5
    1a84:	46 ee       	ldi	r20, 0xE6	; 230
    1a86:	50 e0       	ldi	r21, 0x00	; 0
    1a88:	60 e0       	ldi	r22, 0x00	; 0
    1a8a:	70 e0       	ldi	r23, 0x00	; 0
    1a8c:	0a ef       	ldi	r16, 0xFA	; 250
    1a8e:	10 e0       	ldi	r17, 0x00	; 0
    1a90:	20 e0       	ldi	r18, 0x00	; 0
    1a92:	30 e0       	ldi	r19, 0x00	; 0
    1a94:	0e 94 e5 01 	call	0x3ca	; 0x3ca <WS2801_Set_Delay_Update>
WS2801_Set_Delay_Update(Intensity, 488, LS_DELAY_1, Ja); //488
    1a98:	85 e0       	ldi	r24, 0x05	; 5
    1a9a:	48 ee       	ldi	r20, 0xE8	; 232
    1a9c:	51 e0       	ldi	r21, 0x01	; 1
    1a9e:	60 e0       	ldi	r22, 0x00	; 0
    1aa0:	70 e0       	ldi	r23, 0x00	; 0
    1aa2:	0a ef       	ldi	r16, 0xFA	; 250
    1aa4:	10 e0       	ldi	r17, 0x00	; 0
    1aa6:	20 e0       	ldi	r18, 0x00	; 0
    1aa8:	30 e0       	ldi	r19, 0x00	; 0
    1aaa:	0e 94 e5 01 	call	0x3ca	; 0x3ca <WS2801_Set_Delay_Update>
WS2801_Set_Delay_Update(Intensity, 354, LS_DELAY_1, Ja); //354
    1aae:	85 e0       	ldi	r24, 0x05	; 5
    1ab0:	42 e6       	ldi	r20, 0x62	; 98
    1ab2:	51 e0       	ldi	r21, 0x01	; 1
    1ab4:	60 e0       	ldi	r22, 0x00	; 0
    1ab6:	70 e0       	ldi	r23, 0x00	; 0
    1ab8:	0a ef       	ldi	r16, 0xFA	; 250
    1aba:	10 e0       	ldi	r17, 0x00	; 0
    1abc:	20 e0       	ldi	r18, 0x00	; 0
    1abe:	30 e0       	ldi	r19, 0x00	; 0
    1ac0:	0e 94 e5 01 	call	0x3ca	; 0x3ca <WS2801_Set_Delay_Update>
WS2801_Set_Delay_Update(Intensity, 317, LS_DELAY_1, Ja); //317
    1ac4:	85 e0       	ldi	r24, 0x05	; 5
    1ac6:	4d e3       	ldi	r20, 0x3D	; 61
    1ac8:	51 e0       	ldi	r21, 0x01	; 1
    1aca:	60 e0       	ldi	r22, 0x00	; 0
    1acc:	70 e0       	ldi	r23, 0x00	; 0
    1ace:	0a ef       	ldi	r16, 0xFA	; 250
    1ad0:	10 e0       	ldi	r17, 0x00	; 0
    1ad2:	20 e0       	ldi	r18, 0x00	; 0
    1ad4:	30 e0       	ldi	r19, 0x00	; 0
    1ad6:	0e 94 e5 01 	call	0x3ca	; 0x3ca <WS2801_Set_Delay_Update>
WS2801_Set_Delay_Update(Intensity, 616, LS_DELAY_1, Ja); //616 - Uit
    1ada:	85 e0       	ldi	r24, 0x05	; 5
    1adc:	48 e6       	ldi	r20, 0x68	; 104
    1ade:	52 e0       	ldi	r21, 0x02	; 2
    1ae0:	60 e0       	ldi	r22, 0x00	; 0
    1ae2:	70 e0       	ldi	r23, 0x00	; 0
    1ae4:	0a ef       	ldi	r16, 0xFA	; 250
    1ae6:	10 e0       	ldi	r17, 0x00	; 0
    1ae8:	20 e0       	ldi	r18, 0x00	; 0
    1aea:	30 e0       	ldi	r19, 0x00	; 0
    1aec:	0e 94 e5 01 	call	0x3ca	; 0x3ca <WS2801_Set_Delay_Update>




		
}
    1af0:	1f 91       	pop	r17
    1af2:	0f 91       	pop	r16
    1af4:	ef 90       	pop	r14
    1af6:	08 95       	ret

00001af8 <WS2811_Update>:
#include "RGB Functions.h"
#include <avr/io.h>
#include <util/delay.h>
#include <stdlib.h>

void WS2811_Update(void){
    1af8:	cf 92       	push	r12
    1afa:	df 92       	push	r13
    1afc:	ef 92       	push	r14
    1afe:	ff 92       	push	r15
    1b00:	0f 93       	push	r16
    1b02:	1f 93       	push	r17
    1b04:	cf 93       	push	r28
    1b06:	df 93       	push	r29
    1b08:	e1 e0       	ldi	r30, 0x01	; 1
    1b0a:	f2 e0       	ldi	r31, 0x02	; 2
    1b0c:	c5 e6       	ldi	r28, 0x65	; 101
    1b0e:	d2 e0       	ldi	r29, 0x02	; 2
    1b10:	08 e1       	ldi	r16, 0x18	; 24
    1b12:	10 e0       	ldi	r17, 0x00	; 0
    1b14:	cc 24       	eor	r12, r12
    1b16:	dd 24       	eor	r13, r13
    1b18:	76 01       	movw	r14, r12
    1b1a:	68 94       	set
    1b1c:	e7 f8       	bld	r14, 7
    1b1e:	45 c0       	rjmp	.+138    	; 0x1baa <WS2811_Update+0xb2>
	for (int led=0; led<WS2811_ledcount; led++)
	{
		long mask = 0x00800000;
		while (mask!=0) {
			if ((WS2811[led]&mask)==0) {
    1b20:	80 81       	ld	r24, Z
    1b22:	91 81       	ldd	r25, Z+1	; 0x01
    1b24:	a2 81       	ldd	r26, Z+2	; 0x02
    1b26:	b3 81       	ldd	r27, Z+3	; 0x03
    1b28:	84 23       	and	r24, r20
    1b2a:	95 23       	and	r25, r21
    1b2c:	a6 23       	and	r26, r22
    1b2e:	b7 23       	and	r27, r23
    1b30:	00 97       	sbiw	r24, 0x00	; 0
    1b32:	a1 05       	cpc	r26, r1
    1b34:	b1 05       	cpc	r27, r1
    1b36:	b9 f4       	brne	.+46     	; 0x1b66 <WS2811_Update+0x6e>
				// Send a '0' HI: 250nS LOW: 1000nS
				WS2811_HIGH;  // Hi (start)
    1b38:	5e 9a       	sbi	0x0b, 6	; 11
	...
				NOP_250;
				WS2811_LOW;  // Low
    1b42:	5e 98       	cbi	0x0b, 6	; 11
	...
				NOP_1000;
    1b64:	16 c0       	rjmp	.+44     	; 0x1b92 <WS2811_Update+0x9a>
			}
			else {
				// Send a '1' HI: 600nS LOW: 650nS
				WS2811_HIGH;  // Hi (start)
    1b66:	5e 9a       	sbi	0x0b, 6	; 11
	...
				NOP_650;
    1b7c:	00 00       	nop
				WS2811_LOW;  // Low
    1b7e:	5e 98       	cbi	0x0b, 6	; 11
	...
				NOP_600;
    1b90:	00 00       	nop
			}
			mask >>= 1;           // Lo (1000ns)
    1b92:	75 95       	asr	r23
    1b94:	67 95       	ror	r22
    1b96:	57 95       	ror	r21
    1b98:	47 95       	ror	r20
    1b9a:	21 50       	subi	r18, 0x01	; 1
    1b9c:	30 40       	sbci	r19, 0x00	; 0

void WS2811_Update(void){
	for (int led=0; led<WS2811_ledcount; led++)
	{
		long mask = 0x00800000;
		while (mask!=0) {
    1b9e:	09 f0       	breq	.+2      	; 0x1ba2 <WS2811_Update+0xaa>
    1ba0:	bf cf       	rjmp	.-130    	; 0x1b20 <WS2811_Update+0x28>
    1ba2:	34 96       	adiw	r30, 0x04	; 4
#include <avr/io.h>
#include <util/delay.h>
#include <stdlib.h>

void WS2811_Update(void){
	for (int led=0; led<WS2811_ledcount; led++)
    1ba4:	ec 17       	cp	r30, r28
    1ba6:	fd 07       	cpc	r31, r29
    1ba8:	21 f0       	breq	.+8      	; 0x1bb2 <WS2811_Update+0xba>
#include "RGB Functions.h"
#include <avr/io.h>
#include <util/delay.h>
#include <stdlib.h>

void WS2811_Update(void){
    1baa:	98 01       	movw	r18, r16
    1bac:	b7 01       	movw	r22, r14
    1bae:	a6 01       	movw	r20, r12
    1bb0:	b7 cf       	rjmp	.-146    	; 0x1b20 <WS2811_Update+0x28>
	#else
		//round up by default
		__ticks_dc = (uint32_t)(ceil(fabs(__tmp)));
	#endif

	__builtin_avr_delay_cycles(__ticks_dc);
    1bb2:	87 e1       	ldi	r24, 0x17	; 23
    1bb4:	91 e0       	ldi	r25, 0x01	; 1
    1bb6:	01 97       	sbiw	r24, 0x01	; 1
    1bb8:	f1 f7       	brne	.-4      	; 0x1bb6 <WS2811_Update+0xbe>
    1bba:	00 c0       	rjmp	.+0      	; 0x1bbc <WS2811_Update+0xc4>
    1bbc:	00 00       	nop
			}
			mask >>= 1;           // Lo (1000ns)
		}
	}
	_delay_us(70);
}
    1bbe:	df 91       	pop	r29
    1bc0:	cf 91       	pop	r28
    1bc2:	1f 91       	pop	r17
    1bc4:	0f 91       	pop	r16
    1bc6:	ff 90       	pop	r15
    1bc8:	ef 90       	pop	r14
    1bca:	df 90       	pop	r13
    1bcc:	cf 90       	pop	r12
    1bce:	08 95       	ret

00001bd0 <WS2811_SetMid>:

void WS2811_SetMid(uint8_t From, uint8_t Aantal, long Kleur){
    1bd0:	cf 93       	push	r28
    1bd2:	df 93       	push	r29
    1bd4:	96 2f       	mov	r25, r22
    1bd6:	ba 01       	movw	r22, r20
    1bd8:	a9 01       	movw	r20, r18
	for (uint8_t u = From; u<(From+Aantal); u++)
    1bda:	28 2f       	mov	r18, r24
    1bdc:	30 e0       	ldi	r19, 0x00	; 0
    1bde:	d9 01       	movw	r26, r18
    1be0:	a9 0f       	add	r26, r25
    1be2:	b1 1d       	adc	r27, r1
    1be4:	2a 17       	cp	r18, r26
    1be6:	3b 07       	cpc	r19, r27
    1be8:	ac f4       	brge	.+42     	; 0x1c14 <WS2811_SetMid+0x44>
	{
		WS2811[u-1] = Kleur; 
    1bea:	c1 e0       	ldi	r28, 0x01	; 1
    1bec:	d2 e0       	ldi	r29, 0x02	; 2
    1bee:	21 50       	subi	r18, 0x01	; 1
    1bf0:	30 40       	sbci	r19, 0x00	; 0
    1bf2:	f9 01       	movw	r30, r18
    1bf4:	ee 0f       	add	r30, r30
    1bf6:	ff 1f       	adc	r31, r31
    1bf8:	ee 0f       	add	r30, r30
    1bfa:	ff 1f       	adc	r31, r31
    1bfc:	ec 0f       	add	r30, r28
    1bfe:	fd 1f       	adc	r31, r29
    1c00:	40 83       	st	Z, r20
    1c02:	51 83       	std	Z+1, r21	; 0x01
    1c04:	62 83       	std	Z+2, r22	; 0x02
    1c06:	73 83       	std	Z+3, r23	; 0x03
	}
	_delay_us(70);
}

void WS2811_SetMid(uint8_t From, uint8_t Aantal, long Kleur){
	for (uint8_t u = From; u<(From+Aantal); u++)
    1c08:	8f 5f       	subi	r24, 0xFF	; 255
    1c0a:	28 2f       	mov	r18, r24
    1c0c:	30 e0       	ldi	r19, 0x00	; 0
    1c0e:	2a 17       	cp	r18, r26
    1c10:	3b 07       	cpc	r19, r27
    1c12:	6c f3       	brlt	.-38     	; 0x1bee <WS2811_SetMid+0x1e>
	{
		WS2811[u-1] = Kleur; 
	}
}
    1c14:	df 91       	pop	r29
    1c16:	cf 91       	pop	r28
    1c18:	08 95       	ret

00001c1a <WS2811_SetMidAlternerend>:
void WS2811_SetMidAlternerend(uint8_t From, uint8_t Aantal, long Kleur, uint8_t Alternerend){
    1c1a:	cf 92       	push	r12
    1c1c:	df 92       	push	r13
    1c1e:	ef 92       	push	r14
    1c20:	ff 92       	push	r15
    1c22:	0f 93       	push	r16
    1c24:	69 01       	movw	r12, r18
    1c26:	7a 01       	movw	r14, r20
	
	#define IS_ODD(x)   ((x) & 1)
	#define IS_EVEN(x)  (!(IS_ODD(x)))
	
	for (uint8_t u = From; u<(From+Aantal); u++)
    1c28:	48 2f       	mov	r20, r24
    1c2a:	50 e0       	ldi	r21, 0x00	; 0
    1c2c:	9a 01       	movw	r18, r20
    1c2e:	26 0f       	add	r18, r22
    1c30:	31 1d       	adc	r19, r1
    1c32:	42 17       	cp	r20, r18
    1c34:	53 07       	cpc	r21, r19
    1c36:	5c f5       	brge	.+86     	; 0x1c8e <WS2811_SetMidAlternerend+0x74>
		}
		else if (Alternerend == Ja)
		{
			if (IS_ODD(u))
			{
				WS2811[u-1] = Kleur;
    1c38:	61 e0       	ldi	r22, 0x01	; 1
    1c3a:	72 e0       	ldi	r23, 0x02	; 2
	#define IS_ODD(x)   ((x) & 1)
	#define IS_EVEN(x)  (!(IS_ODD(x)))
	
	for (uint8_t u = From; u<(From+Aantal); u++)
	{
		if (Alternerend == Speciaal)
    1c3c:	05 30       	cpi	r16, 0x05	; 5
    1c3e:	81 f4       	brne	.+32     	; 0x1c60 <WS2811_SetMidAlternerend+0x46>
		{
			if (IS_EVEN(u))
    1c40:	40 fd       	sbrc	r20, 0
    1c42:	1f c0       	rjmp	.+62     	; 0x1c82 <WS2811_SetMidAlternerend+0x68>
			{
				WS2811[u-1] = Kleur;
    1c44:	41 50       	subi	r20, 0x01	; 1
    1c46:	50 40       	sbci	r21, 0x00	; 0
    1c48:	fa 01       	movw	r30, r20
    1c4a:	ee 0f       	add	r30, r30
    1c4c:	ff 1f       	adc	r31, r31
    1c4e:	ee 0f       	add	r30, r30
    1c50:	ff 1f       	adc	r31, r31
    1c52:	e6 0f       	add	r30, r22
    1c54:	f7 1f       	adc	r31, r23
    1c56:	c0 82       	st	Z, r12
    1c58:	d1 82       	std	Z+1, r13	; 0x01
    1c5a:	e2 82       	std	Z+2, r14	; 0x02
    1c5c:	f3 82       	std	Z+3, r15	; 0x03
    1c5e:	11 c0       	rjmp	.+34     	; 0x1c82 <WS2811_SetMidAlternerend+0x68>
			}
		}
		else if (Alternerend == Ja)
    1c60:	01 30       	cpi	r16, 0x01	; 1
    1c62:	79 f4       	brne	.+30     	; 0x1c82 <WS2811_SetMidAlternerend+0x68>
		{
			if (IS_ODD(u))
    1c64:	40 ff       	sbrs	r20, 0
    1c66:	0d c0       	rjmp	.+26     	; 0x1c82 <WS2811_SetMidAlternerend+0x68>
			{
				WS2811[u-1] = Kleur;
    1c68:	41 50       	subi	r20, 0x01	; 1
    1c6a:	50 40       	sbci	r21, 0x00	; 0
    1c6c:	fa 01       	movw	r30, r20
    1c6e:	ee 0f       	add	r30, r30
    1c70:	ff 1f       	adc	r31, r31
    1c72:	ee 0f       	add	r30, r30
    1c74:	ff 1f       	adc	r31, r31
    1c76:	e6 0f       	add	r30, r22
    1c78:	f7 1f       	adc	r31, r23
    1c7a:	c0 82       	st	Z, r12
    1c7c:	d1 82       	std	Z+1, r13	; 0x01
    1c7e:	e2 82       	std	Z+2, r14	; 0x02
    1c80:	f3 82       	std	Z+3, r15	; 0x03
void WS2811_SetMidAlternerend(uint8_t From, uint8_t Aantal, long Kleur, uint8_t Alternerend){
	
	#define IS_ODD(x)   ((x) & 1)
	#define IS_EVEN(x)  (!(IS_ODD(x)))
	
	for (uint8_t u = From; u<(From+Aantal); u++)
    1c82:	8f 5f       	subi	r24, 0xFF	; 255
    1c84:	48 2f       	mov	r20, r24
    1c86:	50 e0       	ldi	r21, 0x00	; 0
    1c88:	42 17       	cp	r20, r18
    1c8a:	53 07       	cpc	r21, r19
    1c8c:	bc f2       	brlt	.-82     	; 0x1c3c <WS2811_SetMidAlternerend+0x22>
			{
				WS2811[u-1] = Kleur;
			}			
		}
	}
}
    1c8e:	0f 91       	pop	r16
    1c90:	ff 90       	pop	r15
    1c92:	ef 90       	pop	r14
    1c94:	df 90       	pop	r13
    1c96:	cf 90       	pop	r12
    1c98:	08 95       	ret

00001c9a <WS2811_SetMidUpdate>:

void WS2811_SetMidUpdate(uint8_t From, uint8_t Aantal, long Kleur, uint8_t Alternerend){
    1c9a:	0f 93       	push	r16
	if (Alternerend = Ja)
	{
		WS2811_SetMidAlternerend(From, Aantal, Kleur, Alternerend);
    1c9c:	01 e0       	ldi	r16, 0x01	; 1
    1c9e:	0e 94 0d 0e 	call	0x1c1a	; 0x1c1a <WS2811_SetMidAlternerend>
	}
	else{
		WS2811_SetMid(From, Aantal, Kleur);
	}
	
	WS2811_Update();
    1ca2:	0e 94 7c 0d 	call	0x1af8	; 0x1af8 <WS2811_Update>
}
    1ca6:	0f 91       	pop	r16
    1ca8:	08 95       	ret

00001caa <WS2811_SetGroupColor>:
void WS2811_SetGroupColor(int Groep, long Kleur, uint8_t Alternerend){
    1caa:	cf 92       	push	r12
    1cac:	df 92       	push	r13
    1cae:	ef 92       	push	r14
    1cb0:	ff 92       	push	r15
    1cb2:	0f 93       	push	r16
    1cb4:	6a 01       	movw	r12, r20
    1cb6:	7b 01       	movw	r14, r22
    1cb8:	02 2f       	mov	r16, r18
	if (Groep == Group1){
    1cba:	81 30       	cpi	r24, 0x01	; 1
    1cbc:	91 05       	cpc	r25, r1
    1cbe:	d1 f4       	brne	.+52     	; 0x1cf4 <WS2811_SetGroupColor+0x4a>
		if (Alternerend == Ja|Alternerend == Speciaal){WS2811_SetMidAlternerend(Group1_Start, Group1_Length, Kleur, Alternerend);}
    1cc0:	81 e0       	ldi	r24, 0x01	; 1
    1cc2:	21 30       	cpi	r18, 0x01	; 1
    1cc4:	09 f0       	breq	.+2      	; 0x1cc8 <WS2811_SetGroupColor+0x1e>
    1cc6:	80 e0       	ldi	r24, 0x00	; 0
    1cc8:	88 23       	and	r24, r24
    1cca:	31 f4       	brne	.+12     	; 0x1cd8 <WS2811_SetGroupColor+0x2e>
    1ccc:	81 e0       	ldi	r24, 0x01	; 1
    1cce:	05 30       	cpi	r16, 0x05	; 5
    1cd0:	09 f0       	breq	.+2      	; 0x1cd4 <WS2811_SetGroupColor+0x2a>
    1cd2:	80 e0       	ldi	r24, 0x00	; 0
    1cd4:	88 23       	and	r24, r24
    1cd6:	39 f0       	breq	.+14     	; 0x1ce6 <WS2811_SetGroupColor+0x3c>
    1cd8:	81 e0       	ldi	r24, 0x01	; 1
    1cda:	66 e0       	ldi	r22, 0x06	; 6
    1cdc:	a7 01       	movw	r20, r14
    1cde:	96 01       	movw	r18, r12
    1ce0:	0e 94 0d 0e 	call	0x1c1a	; 0x1c1a <WS2811_SetMidAlternerend>
    1ce4:	97 c0       	rjmp	.+302    	; 0x1e14 <WS2811_SetGroupColor+0x16a>
		else{WS2811_SetMid(Group1_Start, Group1_Length, Kleur);}		
    1ce6:	81 e0       	ldi	r24, 0x01	; 1
    1ce8:	66 e0       	ldi	r22, 0x06	; 6
    1cea:	a7 01       	movw	r20, r14
    1cec:	96 01       	movw	r18, r12
    1cee:	0e 94 e8 0d 	call	0x1bd0	; 0x1bd0 <WS2811_SetMid>
    1cf2:	90 c0       	rjmp	.+288    	; 0x1e14 <WS2811_SetGroupColor+0x16a>
	}
	else if (Groep == Group2){
    1cf4:	82 30       	cpi	r24, 0x02	; 2
    1cf6:	91 05       	cpc	r25, r1
    1cf8:	d1 f4       	brne	.+52     	; 0x1d2e <WS2811_SetGroupColor+0x84>
		if (Alternerend == Ja|Alternerend == Speciaal){WS2811_SetMidAlternerend(Group2_Start, Group2_Length, Kleur, Alternerend);}
    1cfa:	81 e0       	ldi	r24, 0x01	; 1
    1cfc:	21 30       	cpi	r18, 0x01	; 1
    1cfe:	09 f0       	breq	.+2      	; 0x1d02 <WS2811_SetGroupColor+0x58>
    1d00:	80 e0       	ldi	r24, 0x00	; 0
    1d02:	88 23       	and	r24, r24
    1d04:	31 f4       	brne	.+12     	; 0x1d12 <WS2811_SetGroupColor+0x68>
    1d06:	81 e0       	ldi	r24, 0x01	; 1
    1d08:	05 30       	cpi	r16, 0x05	; 5
    1d0a:	09 f0       	breq	.+2      	; 0x1d0e <WS2811_SetGroupColor+0x64>
    1d0c:	80 e0       	ldi	r24, 0x00	; 0
    1d0e:	88 23       	and	r24, r24
    1d10:	39 f0       	breq	.+14     	; 0x1d20 <WS2811_SetGroupColor+0x76>
    1d12:	87 e0       	ldi	r24, 0x07	; 7
    1d14:	65 e0       	ldi	r22, 0x05	; 5
    1d16:	a7 01       	movw	r20, r14
    1d18:	96 01       	movw	r18, r12
    1d1a:	0e 94 0d 0e 	call	0x1c1a	; 0x1c1a <WS2811_SetMidAlternerend>
    1d1e:	7a c0       	rjmp	.+244    	; 0x1e14 <WS2811_SetGroupColor+0x16a>
		else{WS2811_SetMid(Group2_Start, Group2_Length, Kleur);}		
    1d20:	87 e0       	ldi	r24, 0x07	; 7
    1d22:	65 e0       	ldi	r22, 0x05	; 5
    1d24:	a7 01       	movw	r20, r14
    1d26:	96 01       	movw	r18, r12
    1d28:	0e 94 e8 0d 	call	0x1bd0	; 0x1bd0 <WS2811_SetMid>
    1d2c:	73 c0       	rjmp	.+230    	; 0x1e14 <WS2811_SetGroupColor+0x16a>
	}
	else if (Groep == Group3){
    1d2e:	83 30       	cpi	r24, 0x03	; 3
    1d30:	91 05       	cpc	r25, r1
    1d32:	d1 f4       	brne	.+52     	; 0x1d68 <WS2811_SetGroupColor+0xbe>
		if (Alternerend == Ja|Alternerend == Speciaal){WS2811_SetMidAlternerend(Group3_Start, Group3_Length, Kleur, Alternerend);}
    1d34:	81 e0       	ldi	r24, 0x01	; 1
    1d36:	21 30       	cpi	r18, 0x01	; 1
    1d38:	09 f0       	breq	.+2      	; 0x1d3c <WS2811_SetGroupColor+0x92>
    1d3a:	80 e0       	ldi	r24, 0x00	; 0
    1d3c:	88 23       	and	r24, r24
    1d3e:	31 f4       	brne	.+12     	; 0x1d4c <WS2811_SetGroupColor+0xa2>
    1d40:	81 e0       	ldi	r24, 0x01	; 1
    1d42:	05 30       	cpi	r16, 0x05	; 5
    1d44:	09 f0       	breq	.+2      	; 0x1d48 <WS2811_SetGroupColor+0x9e>
    1d46:	80 e0       	ldi	r24, 0x00	; 0
    1d48:	88 23       	and	r24, r24
    1d4a:	39 f0       	breq	.+14     	; 0x1d5a <WS2811_SetGroupColor+0xb0>
    1d4c:	8c e0       	ldi	r24, 0x0C	; 12
    1d4e:	65 e0       	ldi	r22, 0x05	; 5
    1d50:	a7 01       	movw	r20, r14
    1d52:	96 01       	movw	r18, r12
    1d54:	0e 94 0d 0e 	call	0x1c1a	; 0x1c1a <WS2811_SetMidAlternerend>
    1d58:	5d c0       	rjmp	.+186    	; 0x1e14 <WS2811_SetGroupColor+0x16a>
		else{WS2811_SetMid(Group3_Start, Group3_Length, Kleur);}		
    1d5a:	8c e0       	ldi	r24, 0x0C	; 12
    1d5c:	65 e0       	ldi	r22, 0x05	; 5
    1d5e:	a7 01       	movw	r20, r14
    1d60:	96 01       	movw	r18, r12
    1d62:	0e 94 e8 0d 	call	0x1bd0	; 0x1bd0 <WS2811_SetMid>
    1d66:	56 c0       	rjmp	.+172    	; 0x1e14 <WS2811_SetGroupColor+0x16a>
	}
	else if (Groep == Group4){
    1d68:	84 30       	cpi	r24, 0x04	; 4
    1d6a:	91 05       	cpc	r25, r1
    1d6c:	d1 f4       	brne	.+52     	; 0x1da2 <WS2811_SetGroupColor+0xf8>
		if (Alternerend == Ja|Alternerend == Speciaal){WS2811_SetMidAlternerend(Group4_Start, Group4_Length, Kleur, Alternerend);}
    1d6e:	81 e0       	ldi	r24, 0x01	; 1
    1d70:	21 30       	cpi	r18, 0x01	; 1
    1d72:	09 f0       	breq	.+2      	; 0x1d76 <WS2811_SetGroupColor+0xcc>
    1d74:	80 e0       	ldi	r24, 0x00	; 0
    1d76:	88 23       	and	r24, r24
    1d78:	31 f4       	brne	.+12     	; 0x1d86 <WS2811_SetGroupColor+0xdc>
    1d7a:	81 e0       	ldi	r24, 0x01	; 1
    1d7c:	05 30       	cpi	r16, 0x05	; 5
    1d7e:	09 f0       	breq	.+2      	; 0x1d82 <WS2811_SetGroupColor+0xd8>
    1d80:	80 e0       	ldi	r24, 0x00	; 0
    1d82:	88 23       	and	r24, r24
    1d84:	39 f0       	breq	.+14     	; 0x1d94 <WS2811_SetGroupColor+0xea>
    1d86:	81 e1       	ldi	r24, 0x11	; 17
    1d88:	69 e0       	ldi	r22, 0x09	; 9
    1d8a:	a7 01       	movw	r20, r14
    1d8c:	96 01       	movw	r18, r12
    1d8e:	0e 94 0d 0e 	call	0x1c1a	; 0x1c1a <WS2811_SetMidAlternerend>
    1d92:	40 c0       	rjmp	.+128    	; 0x1e14 <WS2811_SetGroupColor+0x16a>
		else{WS2811_SetMid(Group4_Start, Group4_Length, Kleur);}		
    1d94:	81 e1       	ldi	r24, 0x11	; 17
    1d96:	69 e0       	ldi	r22, 0x09	; 9
    1d98:	a7 01       	movw	r20, r14
    1d9a:	96 01       	movw	r18, r12
    1d9c:	0e 94 e8 0d 	call	0x1bd0	; 0x1bd0 <WS2811_SetMid>
    1da0:	39 c0       	rjmp	.+114    	; 0x1e14 <WS2811_SetGroupColor+0x16a>
	}
	else if (Groep == Group5){
    1da2:	85 30       	cpi	r24, 0x05	; 5
    1da4:	91 05       	cpc	r25, r1
    1da6:	d1 f4       	brne	.+52     	; 0x1ddc <WS2811_SetGroupColor+0x132>
	if (Alternerend == Ja|Alternerend == Speciaal){WS2811_SetMidAlternerend(Group5_Start, Group5_Length, Kleur, Alternerend);}
    1da8:	81 e0       	ldi	r24, 0x01	; 1
    1daa:	21 30       	cpi	r18, 0x01	; 1
    1dac:	09 f0       	breq	.+2      	; 0x1db0 <WS2811_SetGroupColor+0x106>
    1dae:	80 e0       	ldi	r24, 0x00	; 0
    1db0:	88 23       	and	r24, r24
    1db2:	31 f4       	brne	.+12     	; 0x1dc0 <WS2811_SetGroupColor+0x116>
    1db4:	81 e0       	ldi	r24, 0x01	; 1
    1db6:	05 30       	cpi	r16, 0x05	; 5
    1db8:	09 f0       	breq	.+2      	; 0x1dbc <WS2811_SetGroupColor+0x112>
    1dba:	80 e0       	ldi	r24, 0x00	; 0
    1dbc:	88 23       	and	r24, r24
    1dbe:	39 f0       	breq	.+14     	; 0x1dce <WS2811_SetGroupColor+0x124>
    1dc0:	87 e0       	ldi	r24, 0x07	; 7
    1dc2:	6a e0       	ldi	r22, 0x0A	; 10
    1dc4:	a7 01       	movw	r20, r14
    1dc6:	96 01       	movw	r18, r12
    1dc8:	0e 94 0d 0e 	call	0x1c1a	; 0x1c1a <WS2811_SetMidAlternerend>
    1dcc:	23 c0       	rjmp	.+70     	; 0x1e14 <WS2811_SetGroupColor+0x16a>
		else{WS2811_SetMid(Group5_Start, Group5_Length, Kleur);}		
    1dce:	87 e0       	ldi	r24, 0x07	; 7
    1dd0:	6a e0       	ldi	r22, 0x0A	; 10
    1dd2:	a7 01       	movw	r20, r14
    1dd4:	96 01       	movw	r18, r12
    1dd6:	0e 94 e8 0d 	call	0x1bd0	; 0x1bd0 <WS2811_SetMid>
    1dda:	1c c0       	rjmp	.+56     	; 0x1e14 <WS2811_SetGroupColor+0x16a>
	}
	else if (Groep == GroupAll){
    1ddc:	86 30       	cpi	r24, 0x06	; 6
    1dde:	91 05       	cpc	r25, r1
    1de0:	c9 f4       	brne	.+50     	; 0x1e14 <WS2811_SetGroupColor+0x16a>
		if (Alternerend == Ja|Alternerend == Speciaal){WS2811_SetMidAlternerend(GroupALL_Start, GroupALL_Length, Kleur, Alternerend);}
    1de2:	81 e0       	ldi	r24, 0x01	; 1
    1de4:	21 30       	cpi	r18, 0x01	; 1
    1de6:	09 f0       	breq	.+2      	; 0x1dea <WS2811_SetGroupColor+0x140>
    1de8:	80 e0       	ldi	r24, 0x00	; 0
    1dea:	88 23       	and	r24, r24
    1dec:	31 f4       	brne	.+12     	; 0x1dfa <WS2811_SetGroupColor+0x150>
    1dee:	81 e0       	ldi	r24, 0x01	; 1
    1df0:	05 30       	cpi	r16, 0x05	; 5
    1df2:	09 f0       	breq	.+2      	; 0x1df6 <WS2811_SetGroupColor+0x14c>
    1df4:	80 e0       	ldi	r24, 0x00	; 0
    1df6:	88 23       	and	r24, r24
    1df8:	39 f0       	breq	.+14     	; 0x1e08 <WS2811_SetGroupColor+0x15e>
    1dfa:	81 e0       	ldi	r24, 0x01	; 1
    1dfc:	69 e1       	ldi	r22, 0x19	; 25
    1dfe:	a7 01       	movw	r20, r14
    1e00:	96 01       	movw	r18, r12
    1e02:	0e 94 0d 0e 	call	0x1c1a	; 0x1c1a <WS2811_SetMidAlternerend>
    1e06:	06 c0       	rjmp	.+12     	; 0x1e14 <WS2811_SetGroupColor+0x16a>
		else{WS2811_SetMid(GroupALL_Start, GroupALL_Length, Kleur);}		
    1e08:	81 e0       	ldi	r24, 0x01	; 1
    1e0a:	69 e1       	ldi	r22, 0x19	; 25
    1e0c:	a7 01       	movw	r20, r14
    1e0e:	96 01       	movw	r18, r12
    1e10:	0e 94 e8 0d 	call	0x1bd0	; 0x1bd0 <WS2811_SetMid>
	}

}
    1e14:	0f 91       	pop	r16
    1e16:	ff 90       	pop	r15
    1e18:	ef 90       	pop	r14
    1e1a:	df 90       	pop	r13
    1e1c:	cf 90       	pop	r12
    1e1e:	08 95       	ret

00001e20 <WS2811_SetGroupColorUpdate>:
void WS2811_SetGroupColorUpdate(int Groep, long Kleur, uint8_t Alternerend){
	WS2811_SetGroupColor(Groep, Kleur, Alternerend);
    1e20:	0e 94 55 0e 	call	0x1caa	; 0x1caa <WS2811_SetGroupColor>
	WS2811_Update();
    1e24:	0e 94 7c 0d 	call	0x1af8	; 0x1af8 <WS2811_Update>
}
    1e28:	08 95       	ret

00001e2a <WS2811_SetGroupRainbowColor>:
void WS2811_SetGroupRainbowColor(uint8_t Groep, uint8_t Startnr_Regenboog){
    1e2a:	df 92       	push	r13
    1e2c:	ef 92       	push	r14
    1e2e:	ff 92       	push	r15
    1e30:	0f 93       	push	r16
    1e32:	1f 93       	push	r17
    1e34:	cf 93       	push	r28
    1e36:	df 93       	push	r29
    1e38:	cd b7       	in	r28, 0x3d	; 61
    1e3a:	de b7       	in	r29, 0x3e	; 62
    1e3c:	c0 58       	subi	r28, 0x80	; 128
    1e3e:	d0 40       	sbci	r29, 0x00	; 0
    1e40:	0f b6       	in	r0, 0x3f	; 63
    1e42:	f8 94       	cli
    1e44:	de bf       	out	0x3e, r29	; 62
    1e46:	0f be       	out	0x3f, r0	; 63
    1e48:	cd bf       	out	0x3d, r28	; 61
	long RainbowStrain[] = {COLOR_RB1, COLOR_RB2, COLOR_RB3, COLOR_RB4, COLOR_RB5, COLOR_RB6, COLOR_RB7, COLOR_RB8, COLOR_RB9, COLOR_RB10, COLOR_RB11, COLOR_RB12, COLOR_RB13, COLOR_RB14, COLOR_RB15, COLOR_RB16, COLOR_RB17, COLOR_RB18, COLOR_RB19, COLOR_RB20, COLOR_RB21, COLOR_RB22, COLOR_RB23, COLOR_RB24, COLOR_RB25, COLOR_RB26, COLOR_RB27, COLOR_RB28, COLOR_RB29, COLOR_RB30, COLOR_RB31, COLOR_RB32};
    1e4a:	de 01       	movw	r26, r28
    1e4c:	11 96       	adiw	r26, 0x01	; 1
    1e4e:	e0 e8       	ldi	r30, 0x80	; 128
    1e50:	f1 e0       	ldi	r31, 0x01	; 1
    1e52:	90 e8       	ldi	r25, 0x80	; 128
    1e54:	01 90       	ld	r0, Z+
    1e56:	0d 92       	st	X+, r0
    1e58:	91 50       	subi	r25, 0x01	; 1
    1e5a:	e1 f7       	brne	.-8      	; 0x1e54 <WS2811_SetGroupRainbowColor+0x2a>
	uint8_t Groeplengte = 0;
	uint8_t Groepstart = 0;
	
	if (Groep == Group1){
    1e5c:	81 30       	cpi	r24, 0x01	; 1
    1e5e:	69 f0       	breq	.+26     	; 0x1e7a <WS2811_SetGroupRainbowColor+0x50>
	 		Groeplengte = Group1_Length;
	 		Groepstart = Group1_Start;
		}
	else if (Groep == Group2){
    1e60:	82 30       	cpi	r24, 0x02	; 2
    1e62:	71 f0       	breq	.+28     	; 0x1e80 <WS2811_SetGroupRainbowColor+0x56>
	 		Groeplengte = Group2_Length;
	 		Groepstart = Group2_Start;
		}
	else if (Groep == Group3){
    1e64:	83 30       	cpi	r24, 0x03	; 3
    1e66:	79 f0       	breq	.+30     	; 0x1e86 <WS2811_SetGroupRainbowColor+0x5c>
	 		Groeplengte = Group3_Length;
	 		Groepstart = Group3_Start;
		}
	else if (Groep == Group4){
    1e68:	84 30       	cpi	r24, 0x04	; 4
    1e6a:	81 f0       	breq	.+32     	; 0x1e8c <WS2811_SetGroupRainbowColor+0x62>
	 		Groeplengte = Group4_Length;
	 		Groepstart = Group4_Start;
		}
	else if (Groep == Group5){
    1e6c:	85 30       	cpi	r24, 0x05	; 5
    1e6e:	89 f0       	breq	.+34     	; 0x1e92 <WS2811_SetGroupRainbowColor+0x68>
		Groeplengte = Group5_Length;
		Groepstart = Group5_Start;
	}
	else if (Groep == GroupAll){
    1e70:	86 30       	cpi	r24, 0x06	; 6
    1e72:	b9 f5       	brne	.+110    	; 0x1ee2 <WS2811_SetGroupRainbowColor+0xb8>
	 		Groeplengte = GroupALL_Length;
	 		Groepstart = GroupALL_Start;
    1e74:	11 e0       	ldi	r17, 0x01	; 1
	else if (Groep == Group5){
		Groeplengte = Group5_Length;
		Groepstart = Group5_Start;
	}
	else if (Groep == GroupAll){
	 		Groeplengte = GroupALL_Length;
    1e76:	89 e1       	ldi	r24, 0x19	; 25
    1e78:	0e c0       	rjmp	.+28     	; 0x1e96 <WS2811_SetGroupRainbowColor+0x6c>
	uint8_t Groeplengte = 0;
	uint8_t Groepstart = 0;
	
	if (Groep == Group1){
	 		Groeplengte = Group1_Length;
	 		Groepstart = Group1_Start;
    1e7a:	11 e0       	ldi	r17, 0x01	; 1
	long RainbowStrain[] = {COLOR_RB1, COLOR_RB2, COLOR_RB3, COLOR_RB4, COLOR_RB5, COLOR_RB6, COLOR_RB7, COLOR_RB8, COLOR_RB9, COLOR_RB10, COLOR_RB11, COLOR_RB12, COLOR_RB13, COLOR_RB14, COLOR_RB15, COLOR_RB16, COLOR_RB17, COLOR_RB18, COLOR_RB19, COLOR_RB20, COLOR_RB21, COLOR_RB22, COLOR_RB23, COLOR_RB24, COLOR_RB25, COLOR_RB26, COLOR_RB27, COLOR_RB28, COLOR_RB29, COLOR_RB30, COLOR_RB31, COLOR_RB32};
	uint8_t Groeplengte = 0;
	uint8_t Groepstart = 0;
	
	if (Groep == Group1){
	 		Groeplengte = Group1_Length;
    1e7c:	86 e0       	ldi	r24, 0x06	; 6
    1e7e:	0b c0       	rjmp	.+22     	; 0x1e96 <WS2811_SetGroupRainbowColor+0x6c>
	 		Groepstart = Group1_Start;
		}
	else if (Groep == Group2){
	 		Groeplengte = Group2_Length;
	 		Groepstart = Group2_Start;
    1e80:	17 e0       	ldi	r17, 0x07	; 7
	if (Groep == Group1){
	 		Groeplengte = Group1_Length;
	 		Groepstart = Group1_Start;
		}
	else if (Groep == Group2){
	 		Groeplengte = Group2_Length;
    1e82:	85 e0       	ldi	r24, 0x05	; 5
    1e84:	08 c0       	rjmp	.+16     	; 0x1e96 <WS2811_SetGroupRainbowColor+0x6c>
	 		Groepstart = Group2_Start;
		}
	else if (Groep == Group3){
	 		Groeplengte = Group3_Length;
	 		Groepstart = Group3_Start;
    1e86:	1c e0       	ldi	r17, 0x0C	; 12
	else if (Groep == Group2){
	 		Groeplengte = Group2_Length;
	 		Groepstart = Group2_Start;
		}
	else if (Groep == Group3){
	 		Groeplengte = Group3_Length;
    1e88:	85 e0       	ldi	r24, 0x05	; 5
    1e8a:	05 c0       	rjmp	.+10     	; 0x1e96 <WS2811_SetGroupRainbowColor+0x6c>
	 		Groepstart = Group3_Start;
		}
	else if (Groep == Group4){
	 		Groeplengte = Group4_Length;
	 		Groepstart = Group4_Start;
    1e8c:	11 e1       	ldi	r17, 0x11	; 17
	else if (Groep == Group3){
	 		Groeplengte = Group3_Length;
	 		Groepstart = Group3_Start;
		}
	else if (Groep == Group4){
	 		Groeplengte = Group4_Length;
    1e8e:	89 e0       	ldi	r24, 0x09	; 9
    1e90:	02 c0       	rjmp	.+4      	; 0x1e96 <WS2811_SetGroupRainbowColor+0x6c>
	 		Groepstart = Group4_Start;
		}
	else if (Groep == Group5){
		Groeplengte = Group5_Length;
		Groepstart = Group5_Start;
    1e92:	17 e0       	ldi	r17, 0x07	; 7
	else if (Groep == Group4){
	 		Groeplengte = Group4_Length;
	 		Groepstart = Group4_Start;
		}
	else if (Groep == Group5){
		Groeplengte = Group5_Length;
    1e94:	8a e0       	ldi	r24, 0x0A	; 10
	 		Groepstart = GroupALL_Start;
		}
	 
	if ((Groeplengte != 0)&(Groepstart!=0))
	{
		for (uint8_t i=Groepstart; i<Groepstart+Groeplengte; i++)
    1e96:	e8 2e       	mov	r14, r24
    1e98:	ff 24       	eor	r15, r15
    1e9a:	e1 0e       	add	r14, r17
    1e9c:	f1 1c       	adc	r15, r1
    1e9e:	06 2f       	mov	r16, r22
    1ea0:	0f 5f       	subi	r16, 0xFF	; 255
		{
			uint8_t Identifier = (Startnr_Regenboog+i-Groepstart+1);
			if (Identifier>31)
			{
				Identifier = 0;
    1ea2:	dd 24       	eor	r13, r13
	if ((Groeplengte != 0)&(Groepstart!=0))
	{
		for (uint8_t i=Groepstart; i<Groepstart+Groeplengte; i++)
		{
			uint8_t Identifier = (Startnr_Regenboog+i-Groepstart+1);
			if (Identifier>31)
    1ea4:	00 32       	cpi	r16, 0x20	; 32
    1ea6:	10 f4       	brcc	.+4      	; 0x1eac <WS2811_SetGroupRainbowColor+0x82>
	 
	if ((Groeplengte != 0)&(Groepstart!=0))
	{
		for (uint8_t i=Groepstart; i<Groepstart+Groeplengte; i++)
		{
			uint8_t Identifier = (Startnr_Regenboog+i-Groepstart+1);
    1ea8:	e0 2f       	mov	r30, r16
    1eaa:	01 c0       	rjmp	.+2      	; 0x1eae <WS2811_SetGroupRainbowColor+0x84>
			if (Identifier>31)
			{
				Identifier = 0;
    1eac:	ed 2d       	mov	r30, r13
			}
			WS2811_SetMid((i), 1, RainbowStrain[Identifier]);
    1eae:	f0 e0       	ldi	r31, 0x00	; 0
    1eb0:	ee 0f       	add	r30, r30
    1eb2:	ff 1f       	adc	r31, r31
    1eb4:	ee 0f       	add	r30, r30
    1eb6:	ff 1f       	adc	r31, r31
    1eb8:	81 e0       	ldi	r24, 0x01	; 1
    1eba:	90 e0       	ldi	r25, 0x00	; 0
    1ebc:	8c 0f       	add	r24, r28
    1ebe:	9d 1f       	adc	r25, r29
    1ec0:	e8 0f       	add	r30, r24
    1ec2:	f9 1f       	adc	r31, r25
    1ec4:	20 81       	ld	r18, Z
    1ec6:	31 81       	ldd	r19, Z+1	; 0x01
    1ec8:	42 81       	ldd	r20, Z+2	; 0x02
    1eca:	53 81       	ldd	r21, Z+3	; 0x03
    1ecc:	81 2f       	mov	r24, r17
    1ece:	61 e0       	ldi	r22, 0x01	; 1
    1ed0:	0e 94 e8 0d 	call	0x1bd0	; 0x1bd0 <WS2811_SetMid>
	 		Groepstart = GroupALL_Start;
		}
	 
	if ((Groeplengte != 0)&(Groepstart!=0))
	{
		for (uint8_t i=Groepstart; i<Groepstart+Groeplengte; i++)
    1ed4:	1f 5f       	subi	r17, 0xFF	; 255
    1ed6:	0f 5f       	subi	r16, 0xFF	; 255
    1ed8:	81 2f       	mov	r24, r17
    1eda:	90 e0       	ldi	r25, 0x00	; 0
    1edc:	8e 15       	cp	r24, r14
    1ede:	9f 05       	cpc	r25, r15
    1ee0:	0c f3       	brlt	.-62     	; 0x1ea4 <WS2811_SetGroupRainbowColor+0x7a>
		}
	}
	
	
	
}
    1ee2:	c0 58       	subi	r28, 0x80	; 128
    1ee4:	df 4f       	sbci	r29, 0xFF	; 255
    1ee6:	0f b6       	in	r0, 0x3f	; 63
    1ee8:	f8 94       	cli
    1eea:	de bf       	out	0x3e, r29	; 62
    1eec:	0f be       	out	0x3f, r0	; 63
    1eee:	cd bf       	out	0x3d, r28	; 61
    1ef0:	df 91       	pop	r29
    1ef2:	cf 91       	pop	r28
    1ef4:	1f 91       	pop	r17
    1ef6:	0f 91       	pop	r16
    1ef8:	ff 90       	pop	r15
    1efa:	ef 90       	pop	r14
    1efc:	df 90       	pop	r13
    1efe:	08 95       	ret

00001f00 <WS2811_RotateGroup>:

void WS2811_RotateGroup(uint8_t Groep, uint8_t AantalKeer, uint8_t Richting, uint8_t UpdateTijdensRotate, uint16_t DelaytijdTijdensRotate){
    1f00:	2f 92       	push	r2
    1f02:	3f 92       	push	r3
    1f04:	4f 92       	push	r4
    1f06:	5f 92       	push	r5
    1f08:	6f 92       	push	r6
    1f0a:	7f 92       	push	r7
    1f0c:	8f 92       	push	r8
    1f0e:	9f 92       	push	r9
    1f10:	af 92       	push	r10
    1f12:	bf 92       	push	r11
    1f14:	cf 92       	push	r12
    1f16:	df 92       	push	r13
    1f18:	ef 92       	push	r14
    1f1a:	ff 92       	push	r15
    1f1c:	0f 93       	push	r16
    1f1e:	1f 93       	push	r17
    1f20:	cf 93       	push	r28
    1f22:	df 93       	push	r29
    1f24:	00 d0       	rcall	.+0      	; 0x1f26 <WS2811_RotateGroup+0x26>
    1f26:	00 d0       	rcall	.+0      	; 0x1f28 <WS2811_RotateGroup+0x28>
    1f28:	00 d0       	rcall	.+0      	; 0x1f2a <WS2811_RotateGroup+0x2a>
    1f2a:	cd b7       	in	r28, 0x3d	; 61
    1f2c:	de b7       	in	r29, 0x3e	; 62
    1f2e:	d4 2e       	mov	r13, r20
    1f30:	58 01       	movw	r10, r16
			{
				WS2811_Update();
			}
		if (DelaytijdTijdensRotate != 0)
		{
			for (uint16_t delayTijd= 0; delayTijd<DelaytijdTijdensRotate-1; delayTijd++)
    1f32:	66 23       	and	r22, r22
    1f34:	09 f4       	brne	.+2      	; 0x1f38 <WS2811_RotateGroup+0x38>
    1f36:	61 e0       	ldi	r22, 0x01	; 1
	uint8_t Groeplengte = 0;
	uint8_t Groepstart = 0;
	
	if(AantalKeer<=1){AantalKeer=1;}
	
	if (Groep == Group1){
    1f38:	81 30       	cpi	r24, 0x01	; 1
    1f3a:	49 f0       	breq	.+18     	; 0x1f4e <WS2811_RotateGroup+0x4e>
	 	Groeplengte = Group1_Length;
	 	Groepstart = Group1_Start;
	}
	else if (Groep == Group2){
    1f3c:	82 30       	cpi	r24, 0x02	; 2
    1f3e:	51 f0       	breq	.+20     	; 0x1f54 <WS2811_RotateGroup+0x54>
	 	Groeplengte = Group2_Length;
	 	Groepstart = Group2_Start;
	}
	else if (Groep == Group3){
    1f40:	83 30       	cpi	r24, 0x03	; 3
    1f42:	59 f0       	breq	.+22     	; 0x1f5a <WS2811_RotateGroup+0x5a>
	 	Groeplengte = Group3_Length;
	 	Groepstart = Group3_Start;
	}
	else if (Groep == Group4){
    1f44:	84 30       	cpi	r24, 0x04	; 4
    1f46:	61 f0       	breq	.+24     	; 0x1f60 <WS2811_RotateGroup+0x60>
	
}

void WS2811_RotateGroup(uint8_t Groep, uint8_t AantalKeer, uint8_t Richting, uint8_t UpdateTijdensRotate, uint16_t DelaytijdTijdensRotate){
	uint8_t Groeplengte = 0;
	uint8_t Groepstart = 0;
    1f48:	10 e0       	ldi	r17, 0x00	; 0
	
	
}

void WS2811_RotateGroup(uint8_t Groep, uint8_t AantalKeer, uint8_t Richting, uint8_t UpdateTijdensRotate, uint16_t DelaytijdTijdensRotate){
	uint8_t Groeplengte = 0;
    1f4a:	70 e0       	ldi	r23, 0x00	; 0
    1f4c:	0b c0       	rjmp	.+22     	; 0x1f64 <WS2811_RotateGroup+0x64>
	
	if(AantalKeer<=1){AantalKeer=1;}
	
	if (Groep == Group1){
	 	Groeplengte = Group1_Length;
	 	Groepstart = Group1_Start;
    1f4e:	11 e0       	ldi	r17, 0x01	; 1
	uint8_t Groepstart = 0;
	
	if(AantalKeer<=1){AantalKeer=1;}
	
	if (Groep == Group1){
	 	Groeplengte = Group1_Length;
    1f50:	76 e0       	ldi	r23, 0x06	; 6
    1f52:	08 c0       	rjmp	.+16     	; 0x1f64 <WS2811_RotateGroup+0x64>
	 	Groepstart = Group1_Start;
	}
	else if (Groep == Group2){
	 	Groeplengte = Group2_Length;
	 	Groepstart = Group2_Start;
    1f54:	17 e0       	ldi	r17, 0x07	; 7
	if (Groep == Group1){
	 	Groeplengte = Group1_Length;
	 	Groepstart = Group1_Start;
	}
	else if (Groep == Group2){
	 	Groeplengte = Group2_Length;
    1f56:	75 e0       	ldi	r23, 0x05	; 5
    1f58:	05 c0       	rjmp	.+10     	; 0x1f64 <WS2811_RotateGroup+0x64>
	 	Groepstart = Group2_Start;
	}
	else if (Groep == Group3){
	 	Groeplengte = Group3_Length;
	 	Groepstart = Group3_Start;
    1f5a:	1c e0       	ldi	r17, 0x0C	; 12
	else if (Groep == Group2){
	 	Groeplengte = Group2_Length;
	 	Groepstart = Group2_Start;
	}
	else if (Groep == Group3){
	 	Groeplengte = Group3_Length;
    1f5c:	75 e0       	ldi	r23, 0x05	; 5
    1f5e:	02 c0       	rjmp	.+4      	; 0x1f64 <WS2811_RotateGroup+0x64>
	 	Groepstart = Group3_Start;
	}
	else if (Groep == Group4){
	 	Groeplengte = Group4_Length;
	 	Groepstart = Group4_Start;
    1f60:	11 e1       	ldi	r17, 0x11	; 17
	else if (Groep == Group3){
	 	Groeplengte = Group3_Length;
	 	Groepstart = Group3_Start;
	}
	else if (Groep == Group4){
	 	Groeplengte = Group4_Length;
    1f62:	79 e0       	ldi	r23, 0x09	; 9
	 	Groepstart = Group4_Start;
	}
	
	for (uint8_t Frequentie=1; Frequentie<(AantalKeer+1); Frequentie++)
    1f64:	86 2e       	mov	r8, r22
    1f66:	99 24       	eor	r9, r9
    1f68:	08 94       	sec
    1f6a:	81 1c       	adc	r8, r1
    1f6c:	91 1c       	adc	r9, r1
    1f6e:	22 e0       	ldi	r18, 0x02	; 2
    1f70:	82 16       	cp	r8, r18
    1f72:	91 04       	cpc	r9, r1
    1f74:	0c f4       	brge	.+2      	; 0x1f78 <WS2811_RotateGroup+0x78>
    1f76:	db c0       	rjmp	.+438    	; 0x212e <WS2811_RotateGroup+0x22e>
    1f78:	01 e0       	ldi	r16, 0x01	; 1
			}
			WS2811[Groepstart +Groeplengte-4] = temp;
		}
		else if (Richting == Rechts)
		{
			long temp = WS2811[Groepstart -1];
    1f7a:	21 2f       	mov	r18, r17
    1f7c:	30 e0       	ldi	r19, 0x00	; 0
    1f7e:	c9 01       	movw	r24, r18
    1f80:	01 97       	sbiw	r24, 0x01	; 1
    1f82:	88 0f       	add	r24, r24
    1f84:	99 1f       	adc	r25, r25
    1f86:	88 0f       	add	r24, r24
    1f88:	99 1f       	adc	r25, r25
    1f8a:	41 e0       	ldi	r20, 0x01	; 1
    1f8c:	52 e0       	ldi	r21, 0x02	; 2
    1f8e:	48 0f       	add	r20, r24
    1f90:	59 1f       	adc	r21, r25
    1f92:	5a 83       	std	Y+2, r21	; 0x02
    1f94:	49 83       	std	Y+1, r20	; 0x01
			WS2811[Groepstart -1] = WS2811[Groepstart +Groeplengte-3];
    1f96:	a9 01       	movw	r20, r18
    1f98:	47 0f       	add	r20, r23
    1f9a:	51 1d       	adc	r21, r1
    1f9c:	ca 01       	movw	r24, r20
    1f9e:	03 97       	sbiw	r24, 0x03	; 3
    1fa0:	88 0f       	add	r24, r24
    1fa2:	99 1f       	adc	r25, r25
    1fa4:	88 0f       	add	r24, r24
    1fa6:	99 1f       	adc	r25, r25
    1fa8:	0f 2e       	mov	r0, r31
    1faa:	f1 e0       	ldi	r31, 0x01	; 1
    1fac:	2f 2e       	mov	r2, r31
    1fae:	f2 e0       	ldi	r31, 0x02	; 2
    1fb0:	3f 2e       	mov	r3, r31
    1fb2:	f0 2d       	mov	r31, r0
    1fb4:	28 0e       	add	r2, r24
    1fb6:	39 1e       	adc	r3, r25
			for (uint8_t u=Groepstart +Groeplengte-3; u>Groepstart ; u--)
    1fb8:	c7 2e       	mov	r12, r23
    1fba:	c1 0e       	add	r12, r17
			{
				WS2811[u] = WS2811[u-1];
			}
			
			WS2811[Groepstart ] = temp;
    1fbc:	c9 01       	movw	r24, r18
    1fbe:	88 0f       	add	r24, r24
    1fc0:	99 1f       	adc	r25, r25
    1fc2:	88 0f       	add	r24, r24
    1fc4:	99 1f       	adc	r25, r25
    1fc6:	a1 e0       	ldi	r26, 0x01	; 1
    1fc8:	b2 e0       	ldi	r27, 0x02	; 2
    1fca:	a8 0f       	add	r26, r24
    1fcc:	b9 1f       	adc	r27, r25
    1fce:	be 83       	std	Y+6, r27	; 0x06
    1fd0:	ad 83       	std	Y+5, r26	; 0x05
	{
		if (Richting == Links)
		{
			long temp = WS2811[Groepstart+Groeplengte-3];
			WS2811[Groepstart +Groeplengte-3] = WS2811[Groepstart -1];
			for (uint8_t u= Groepstart -1; u< Groepstart +Groeplengte-4; u++)
    1fd2:	0f 2e       	mov	r0, r31
    1fd4:	fc ef       	ldi	r31, 0xFC	; 252
    1fd6:	ef 2e       	mov	r14, r31
    1fd8:	ff ef       	ldi	r31, 0xFF	; 255
    1fda:	ff 2e       	mov	r15, r31
    1fdc:	f0 2d       	mov	r31, r0
    1fde:	e4 0e       	add	r14, r20
    1fe0:	f5 1e       	adc	r15, r21
			{
				WS2811[u] = WS2811[u+1];
			}
			WS2811[Groepstart +Groeplengte-4] = temp;
    1fe2:	c7 01       	movw	r24, r14
    1fe4:	88 0f       	add	r24, r24
    1fe6:	99 1f       	adc	r25, r25
    1fe8:	88 0f       	add	r24, r24
    1fea:	99 1f       	adc	r25, r25
    1fec:	e1 e0       	ldi	r30, 0x01	; 1
    1fee:	f2 e0       	ldi	r31, 0x02	; 2
    1ff0:	e8 0f       	add	r30, r24
    1ff2:	f9 1f       	adc	r31, r25
    1ff4:	fc 83       	std	Y+4, r31	; 0x04
    1ff6:	eb 83       	std	Y+3, r30	; 0x03
	 	Groepstart = Group4_Start;
	}
	
	for (uint8_t Frequentie=1; Frequentie<(AantalKeer+1); Frequentie++)
	{
		if (Richting == Links)
    1ff8:	f1 e0       	ldi	r31, 0x01	; 1
    1ffa:	df 16       	cp	r13, r31
    1ffc:	f1 f5       	brne	.+124    	; 0x207a <WS2811_RotateGroup+0x17a>
		{
			long temp = WS2811[Groepstart+Groeplengte-3];
    1ffe:	d1 01       	movw	r26, r2
    2000:	4d 90       	ld	r4, X+
    2002:	5d 90       	ld	r5, X+
    2004:	6d 90       	ld	r6, X+
    2006:	7c 90       	ld	r7, X
			WS2811[Groepstart +Groeplengte-3] = WS2811[Groepstart -1];
    2008:	e9 81       	ldd	r30, Y+1	; 0x01
    200a:	fa 81       	ldd	r31, Y+2	; 0x02
    200c:	80 81       	ld	r24, Z
    200e:	91 81       	ldd	r25, Z+1	; 0x01
    2010:	a2 81       	ldd	r26, Z+2	; 0x02
    2012:	b3 81       	ldd	r27, Z+3	; 0x03
    2014:	f1 01       	movw	r30, r2
    2016:	80 83       	st	Z, r24
    2018:	91 83       	std	Z+1, r25	; 0x01
    201a:	a2 83       	std	Z+2, r26	; 0x02
    201c:	b3 83       	std	Z+3, r27	; 0x03
			for (uint8_t u= Groepstart -1; u< Groepstart +Groeplengte-4; u++)
    201e:	21 2f       	mov	r18, r17
    2020:	21 50       	subi	r18, 0x01	; 1
    2022:	30 e0       	ldi	r19, 0x00	; 0
    2024:	2e 15       	cp	r18, r14
    2026:	3f 05       	cpc	r19, r15
    2028:	0c f5       	brge	.+66     	; 0x206c <WS2811_RotateGroup+0x16c>
    202a:	e1 2f       	mov	r30, r17
			{
				WS2811[u] = WS2811[u+1];
    202c:	c9 01       	movw	r24, r18
    202e:	01 96       	adiw	r24, 0x01	; 1
    2030:	88 0f       	add	r24, r24
    2032:	99 1f       	adc	r25, r25
    2034:	88 0f       	add	r24, r24
    2036:	99 1f       	adc	r25, r25
    2038:	8f 5f       	subi	r24, 0xFF	; 255
    203a:	9d 4f       	sbci	r25, 0xFD	; 253
    203c:	dc 01       	movw	r26, r24
    203e:	4d 91       	ld	r20, X+
    2040:	5d 91       	ld	r21, X+
    2042:	6d 91       	ld	r22, X+
    2044:	7c 91       	ld	r23, X
    2046:	c9 01       	movw	r24, r18
    2048:	88 0f       	add	r24, r24
    204a:	99 1f       	adc	r25, r25
    204c:	88 0f       	add	r24, r24
    204e:	99 1f       	adc	r25, r25
    2050:	8f 5f       	subi	r24, 0xFF	; 255
    2052:	9d 4f       	sbci	r25, 0xFD	; 253
    2054:	dc 01       	movw	r26, r24
    2056:	4d 93       	st	X+, r20
    2058:	5d 93       	st	X+, r21
    205a:	6d 93       	st	X+, r22
    205c:	7c 93       	st	X, r23
    205e:	13 97       	sbiw	r26, 0x03	; 3
	{
		if (Richting == Links)
		{
			long temp = WS2811[Groepstart+Groeplengte-3];
			WS2811[Groepstart +Groeplengte-3] = WS2811[Groepstart -1];
			for (uint8_t u= Groepstart -1; u< Groepstart +Groeplengte-4; u++)
    2060:	2e 2f       	mov	r18, r30
    2062:	30 e0       	ldi	r19, 0x00	; 0
    2064:	ef 5f       	subi	r30, 0xFF	; 255
    2066:	2e 15       	cp	r18, r14
    2068:	3f 05       	cpc	r19, r15
    206a:	04 f3       	brlt	.-64     	; 0x202c <WS2811_RotateGroup+0x12c>
			{
				WS2811[u] = WS2811[u+1];
			}
			WS2811[Groepstart +Groeplengte-4] = temp;
    206c:	eb 81       	ldd	r30, Y+3	; 0x03
    206e:	fc 81       	ldd	r31, Y+4	; 0x04
    2070:	40 82       	st	Z, r4
    2072:	51 82       	std	Z+1, r5	; 0x01
    2074:	62 82       	std	Z+2, r6	; 0x02
    2076:	73 82       	std	Z+3, r7	; 0x03
    2078:	3e c0       	rjmp	.+124    	; 0x20f6 <WS2811_RotateGroup+0x1f6>
		}
		else if (Richting == Rechts)
    207a:	f2 e0       	ldi	r31, 0x02	; 2
    207c:	df 16       	cp	r13, r31
    207e:	d9 f5       	brne	.+118    	; 0x20f6 <WS2811_RotateGroup+0x1f6>
		{
			long temp = WS2811[Groepstart -1];
    2080:	a9 81       	ldd	r26, Y+1	; 0x01
    2082:	ba 81       	ldd	r27, Y+2	; 0x02
    2084:	4d 90       	ld	r4, X+
    2086:	5d 90       	ld	r5, X+
    2088:	6d 90       	ld	r6, X+
    208a:	7c 90       	ld	r7, X
			WS2811[Groepstart -1] = WS2811[Groepstart +Groeplengte-3];
    208c:	f1 01       	movw	r30, r2
    208e:	80 81       	ld	r24, Z
    2090:	91 81       	ldd	r25, Z+1	; 0x01
    2092:	a2 81       	ldd	r26, Z+2	; 0x02
    2094:	b3 81       	ldd	r27, Z+3	; 0x03
    2096:	e9 81       	ldd	r30, Y+1	; 0x01
    2098:	fa 81       	ldd	r31, Y+2	; 0x02
    209a:	80 83       	st	Z, r24
    209c:	91 83       	std	Z+1, r25	; 0x01
    209e:	a2 83       	std	Z+2, r26	; 0x02
    20a0:	b3 83       	std	Z+3, r27	; 0x03
			for (uint8_t u=Groepstart +Groeplengte-3; u>Groepstart ; u--)
    20a2:	2c 2d       	mov	r18, r12
    20a4:	23 50       	subi	r18, 0x03	; 3
    20a6:	12 17       	cp	r17, r18
    20a8:	f8 f4       	brcc	.+62     	; 0x20e8 <WS2811_RotateGroup+0x1e8>
			{
				WS2811[u] = WS2811[u-1];
    20aa:	e2 2f       	mov	r30, r18
    20ac:	f0 e0       	ldi	r31, 0x00	; 0
    20ae:	cf 01       	movw	r24, r30
    20b0:	01 97       	sbiw	r24, 0x01	; 1
    20b2:	88 0f       	add	r24, r24
    20b4:	99 1f       	adc	r25, r25
    20b6:	88 0f       	add	r24, r24
    20b8:	99 1f       	adc	r25, r25
    20ba:	8f 5f       	subi	r24, 0xFF	; 255
    20bc:	9d 4f       	sbci	r25, 0xFD	; 253
    20be:	dc 01       	movw	r26, r24
    20c0:	4d 91       	ld	r20, X+
    20c2:	5d 91       	ld	r21, X+
    20c4:	6d 91       	ld	r22, X+
    20c6:	7c 91       	ld	r23, X
    20c8:	13 97       	sbiw	r26, 0x03	; 3
    20ca:	cf 01       	movw	r24, r30
    20cc:	88 0f       	add	r24, r24
    20ce:	99 1f       	adc	r25, r25
    20d0:	88 0f       	add	r24, r24
    20d2:	99 1f       	adc	r25, r25
    20d4:	8f 5f       	subi	r24, 0xFF	; 255
    20d6:	9d 4f       	sbci	r25, 0xFD	; 253
    20d8:	fc 01       	movw	r30, r24
    20da:	40 83       	st	Z, r20
    20dc:	51 83       	std	Z+1, r21	; 0x01
    20de:	62 83       	std	Z+2, r22	; 0x02
    20e0:	73 83       	std	Z+3, r23	; 0x03
		}
		else if (Richting == Rechts)
		{
			long temp = WS2811[Groepstart -1];
			WS2811[Groepstart -1] = WS2811[Groepstart +Groeplengte-3];
			for (uint8_t u=Groepstart +Groeplengte-3; u>Groepstart ; u--)
    20e2:	21 50       	subi	r18, 0x01	; 1
    20e4:	12 17       	cp	r17, r18
    20e6:	08 f3       	brcs	.-62     	; 0x20aa <WS2811_RotateGroup+0x1aa>
			{
				WS2811[u] = WS2811[u-1];
			}
			
			WS2811[Groepstart ] = temp;
    20e8:	ad 81       	ldd	r26, Y+5	; 0x05
    20ea:	be 81       	ldd	r27, Y+6	; 0x06
    20ec:	4d 92       	st	X+, r4
    20ee:	5d 92       	st	X+, r5
    20f0:	6d 92       	st	X+, r6
    20f2:	7c 92       	st	X, r7
    20f4:	13 97       	sbiw	r26, 0x03	; 3
		}
			if (UpdateTijdensRotate = Ja)
			{
				WS2811_Update();
    20f6:	0e 94 7c 0d 	call	0x1af8	; 0x1af8 <WS2811_Update>
			}
		if (DelaytijdTijdensRotate != 0)
    20fa:	a1 14       	cp	r10, r1
    20fc:	b1 04       	cpc	r11, r1
    20fe:	81 f0       	breq	.+32     	; 0x2120 <WS2811_RotateGroup+0x220>
		{
			for (uint16_t delayTijd= 0; delayTijd<DelaytijdTijdensRotate-1; delayTijd++)
    2100:	c5 01       	movw	r24, r10
    2102:	01 97       	sbiw	r24, 0x01	; 1
    2104:	69 f0       	breq	.+26     	; 0x2120 <WS2811_RotateGroup+0x220>
    2106:	20 e0       	ldi	r18, 0x00	; 0
    2108:	30 e0       	ldi	r19, 0x00	; 0
	#else
		//round up by default
		__ticks_dc = (uint32_t)(ceil(fabs(__tmp)));
	#endif

	__builtin_avr_delay_cycles(__ticks_dc);
    210a:	ef e9       	ldi	r30, 0x9F	; 159
    210c:	ff e0       	ldi	r31, 0x0F	; 15
    210e:	31 97       	sbiw	r30, 0x01	; 1
    2110:	f1 f7       	brne	.-4      	; 0x210e <WS2811_RotateGroup+0x20e>
    2112:	00 c0       	rjmp	.+0      	; 0x2114 <WS2811_RotateGroup+0x214>
    2114:	00 00       	nop
    2116:	2f 5f       	subi	r18, 0xFF	; 255
    2118:	3f 4f       	sbci	r19, 0xFF	; 255
    211a:	28 17       	cp	r18, r24
    211c:	39 07       	cpc	r19, r25
    211e:	a8 f3       	brcs	.-22     	; 0x210a <WS2811_RotateGroup+0x20a>
	else if (Groep == Group4){
	 	Groeplengte = Group4_Length;
	 	Groepstart = Group4_Start;
	}
	
	for (uint8_t Frequentie=1; Frequentie<(AantalKeer+1); Frequentie++)
    2120:	0f 5f       	subi	r16, 0xFF	; 255
    2122:	80 2f       	mov	r24, r16
    2124:	90 e0       	ldi	r25, 0x00	; 0
    2126:	88 15       	cp	r24, r8
    2128:	99 05       	cpc	r25, r9
    212a:	0c f4       	brge	.+2      	; 0x212e <WS2811_RotateGroup+0x22e>
    212c:	65 cf       	rjmp	.-310    	; 0x1ff8 <WS2811_RotateGroup+0xf8>
				_delay_ms(1);
			}			
		}
		
	}
}
    212e:	26 96       	adiw	r28, 0x06	; 6
    2130:	0f b6       	in	r0, 0x3f	; 63
    2132:	f8 94       	cli
    2134:	de bf       	out	0x3e, r29	; 62
    2136:	0f be       	out	0x3f, r0	; 63
    2138:	cd bf       	out	0x3d, r28	; 61
    213a:	df 91       	pop	r29
    213c:	cf 91       	pop	r28
    213e:	1f 91       	pop	r17
    2140:	0f 91       	pop	r16
    2142:	ff 90       	pop	r15
    2144:	ef 90       	pop	r14
    2146:	df 90       	pop	r13
    2148:	cf 90       	pop	r12
    214a:	bf 90       	pop	r11
    214c:	af 90       	pop	r10
    214e:	9f 90       	pop	r9
    2150:	8f 90       	pop	r8
    2152:	7f 90       	pop	r7
    2154:	6f 90       	pop	r6
    2156:	5f 90       	pop	r5
    2158:	4f 90       	pop	r4
    215a:	3f 90       	pop	r3
    215c:	2f 90       	pop	r2
    215e:	08 95       	ret

00002160 <WS2811_RotateGroupUpdate>:

void WS2811_RotateGroupUpdate(uint8_t Groep, uint8_t AantalKeer, uint8_t Richting, uint8_t UpdateTijdensRotate, uint16_t DelaytijdTijdensRotate){
    2160:	0f 93       	push	r16
    2162:	1f 93       	push	r17
	WS2811_RotateGroup(Groep, AantalKeer, Richting, UpdateTijdensRotate, DelaytijdTijdensRotate);
    2164:	0e 94 80 0f 	call	0x1f00	; 0x1f00 <WS2811_RotateGroup>
	WS2811_Update();
    2168:	0e 94 7c 0d 	call	0x1af8	; 0x1af8 <WS2811_Update>
    216c:	1f 91       	pop	r17
    216e:	0f 91       	pop	r16
    2170:	08 95       	ret

00002172 <_exit>:
    2172:	f8 94       	cli

00002174 <__stop_program>:
    2174:	ff cf       	rjmp	.-2      	; 0x2174 <__stop_program>
